MODULE Linux x86_64 48A8685E73E6F688F7C4BA887AD98E9D0 hello
FUNC 1930 29 0 sys_close
FUNC 195a 4a 0 google_breakpad::PageAllocator::FreeAll
FUNC 19a4 20 0 google_breakpad::ProcCpuInfoReader::GetValueAndLen
FUNC 19c4 20 0 google_breakpad::TypedMDRVA<MDRawDirectory>::CopyIndex
FUNC 19e4 20 0 google_breakpad::TypedMDRVA<unsigned int>::AllocateObjectAndArray
FUNC 1a04 20 0 google_breakpad::TypedMDRVA<unsigned int>::CopyIndexAfterObject
FUNC 1a24 1b7 0 MinidumpWriter::WriteFile
FUNC 1bdc 68 0 MinidumpWriter::WriteProcFile
FUNC 1c44 20 0 google_breakpad::TypedMDRVA<MDString>::CopyIndexAfterObject
FUNC 1c64 20 0 google_breakpad::TypedMDRVA<MDString>::AllocateObjectAndArray
FUNC 1c84 20 0 google_breakpad::LineReader::PopLine
FUNC 1d8d 39 0 dumpCallback
FUNC 1dc6 18 0 crash
FUNC 1dde 145 0 main
FUNC 1f24 bd 0 google_breakpad::MinidumpDescriptor::MinidumpDescriptor
FUNC 1fe2 12 0 google_breakpad::MinidumpDescriptor::path
FUNC 1ff4 54 0 google_breakpad::MinidumpDescriptor::~MinidumpDescriptor
FUNC 2050 f8 0 google_breakpad::ExceptionHandler::InstallHandlersLocked
FUNC 2150 6c 0 google_breakpad::ExceptionHandler::RestoreHandlersLocked
FUNC 21c0 3e0 0 google_breakpad::ExceptionHandler::~ExceptionHandler
FUNC 25a0 ce 0 google_breakpad::ExceptionHandler::SendContinueSignalToChild
FUNC 2670 47f 0 google_breakpad::ExceptionHandler::GenerateDump
FUNC 2af0 194 0 google_breakpad::ExceptionHandler::HandleSignal
FUNC 2c90 42 0 google_breakpad::ExceptionHandler::HandleSignal
FUNC 2ce0 17b 0 google_breakpad::ExceptionHandler::SignalHandler
FUNC 2e60 56 0 google_breakpad::ExceptionHandler::SimulateSignalDelivery
FUNC 2ec0 c6 0 google_breakpad::ExceptionHandler::WaitForContinueSignal
FUNC 2f90 58 0 google_breakpad::ExceptionHandler::DoDump
FUNC 2ff0 28 0 google_breakpad::ExceptionHandler::ThreadEntry
FUNC 3020 163 0 google_breakpad::ExceptionHandler::WriteMinidump
FUNC 3190 d1 0 google_breakpad::ExceptionHandler::AddMappingInfo
FUNC 3270 5d 0 google_breakpad::ExceptionHandler::RegisterAppMemory
FUNC 32d0 31 0 google_breakpad::ExceptionHandler::UnregisterAppMemory
FUNC 3310 170 0 google_breakpad::ExceptionHandler::WriteMinidumpForChild
FUNC 3480 319 0 google_breakpad::ExceptionHandler::ExceptionHandler
FUNC 37a0 169 0 google_breakpad::ExceptionHandler::WriteMinidump
FUNC 3910 19a 0 std::vector<google_breakpad::ExceptionHandler*, std::allocator<google_breakpad::ExceptionHandler*> >::_M_insert_aux
FUNC 3ab0 6f 0 google_breakpad::MinidumpDescriptor::MinidumpDescriptor
FUNC 3b20 2d7 0 google_breakpad::MinidumpDescriptor::UpdatePath
FUNC 3e00 86 0 google_breakpad::MinidumpDescriptor::operator=
FUNC 3e90 34 0 logger::write
FUNC 3ed0 4d 0 MinidumpWriter::~MinidumpWriter
FUNC 3f20 1e 0 google_breakpad::TypedMDRVA<MDRawDirectory>::CopyIndex
FUNC 3f40 15c9 0 MinidumpWriter::WriteThreadListStream
FUNC 5510 1e18 0 MinidumpWriter::Dump
FUNC 7330 3e0 0 WriteMinidumpImpl
FUNC 7710 e1 0 google_breakpad::WriteMinidump
FUNC 7800 e1 0 google_breakpad::WriteMinidump
FUNC 78f0 2b 0 google_breakpad::WriteMinidump
FUNC 7920 2a 0 google_breakpad::WriteMinidump
FUNC 7950 2c 0 google_breakpad::WriteMinidump
FUNC 7980 2b 0 google_breakpad::WriteMinidump
FUNC 79b0 452 0 google_breakpad::WriteMinidump
FUNC 7e10 302 0 google_breakpad::WriteMinidump
FUNC 8120 13f 0 google_breakpad::PageAllocator::Alloc
FUNC 8260 249 0 google_breakpad::ProcCpuInfoReader::GetNextField
FUNC 84b0 22 0 google_breakpad::TypedMDRVA<unsigned int>::~TypedMDRVA
FUNC 84e0 22 0 google_breakpad::TypedMDRVA<MDRawContextAMD64>::~TypedMDRVA
FUNC 8510 22 0 google_breakpad::TypedMDRVA<MDRawSystemInfo>::~TypedMDRVA
FUNC 8540 22 0 google_breakpad::TypedMDRVA<MDRawLinkMap>::~TypedMDRVA
FUNC 8570 22 0 google_breakpad::TypedMDRVA<MDRawDebug>::~TypedMDRVA
FUNC 85a0 307 0 std::vector<MDMemoryDescriptor, google_breakpad::PageStdAllocator<MDMemoryDescriptor> >::_M_insert_aux
FUNC 88b0 3c4 0 std::vector<char, google_breakpad::PageStdAllocator<char> >::_M_fill_insert
FUNC 8c80 1a 0 google_breakpad::MinidumpFileWriter::MinidumpFileWriter
FUNC 8ca0 78 0 google_breakpad::MinidumpFileWriter::Open
FUNC 8d20 2c 0 google_breakpad::MinidumpFileWriter::SetFile
FUNC 8d50 69 0 google_breakpad::MinidumpFileWriter::Close
FUNC 8dc0 15 0 google_breakpad::MinidumpFileWriter::~MinidumpFileWriter
FUNC 8de0 b6 0 google_breakpad::MinidumpFileWriter::Allocate
FUNC 8ea0 ff 0 google_breakpad::MinidumpFileWriter::Copy
FUNC 8fa0 b4 0 google_breakpad::MinidumpFileWriter::CopyStringToMDString
FUNC 9060 b5 0 google_breakpad::MinidumpFileWriter::CopyStringToMDString
FUNC 9120 41 0 google_breakpad::UntypedMDRVA::Allocate
FUNC 9170 88 0 google_breakpad::UntypedMDRVA::Copy
FUNC 9200 c1 0 google_breakpad::MinidumpFileWriter::WriteMemory
FUNC 92d0 5 0 google_breakpad::MinidumpFileWriter::WriteString
FUNC 92e0 5 0 google_breakpad::MinidumpFileWriter::WriteString
FUNC 92f0 22 0 google_breakpad::TypedMDRVA<MDString>::~TypedMDRVA
FUNC 9320 1d9 0 google_breakpad::MinidumpFileWriter::WriteStringCore<wchar_t>
FUNC 9500 1d7 0 google_breakpad::MinidumpFileWriter::WriteStringCore<char>
FUNC 96e0 91 0 google_breakpad::UTF8ToUTF16Char
FUNC 9780 56 0 google_breakpad::UTF32ToUTF16Char
FUNC 97e0 15b 0 google_breakpad::UTF16ToUTF8
FUNC 9940 e3 0 google_breakpad::UTF32ToUTF16
FUNC 9a30 e3 0 google_breakpad::UTF8ToUTF16
FUNC 9b20 283 0 std::vector<short unsigned int, std::allocator<short unsigned int> >::_M_fill_insert
FUNC 9db0 73 0 CreateGUID
FUNC 9e30 c0 0 GUIDToString
FUNC 9ef0 16 0 GUIDGenerator::InitOnceImpl
FUNC 9f10 1e 0 my_strlen
FUNC 9f30 33 0 my_strcmp
FUNC 9f70 56 0 my_strncmp
FUNC 9fd0 4c 0 my_strtoui
FUNC a020 36 0 my_uint_len
FUNC a060 3a 0 my_uitos
FUNC a0a0 2b 0 my_strchr
FUNC a0d0 26 0 my_strrchr
FUNC a100 2b 0 my_memchr
FUNC a130 64 0 my_read_hex_ptr
FUNC a1a0 3a 0 my_read_decimal_ptr
FUNC a1e0 1f 0 my_memset
FUNC a200 38 0 my_strlcpy
FUNC a240 45 0 my_strlcat
FUNC a290 6c 0 my_isspace
FUNC a300 f 0 google_breakpad::::CrashGenerationClientImpl::~CrashGenerationClientImpl
FUNC a310 13 0 google_breakpad::::CrashGenerationClientImpl::~CrashGenerationClientImpl
FUNC a330 212 0 google_breakpad::::CrashGenerationClientImpl::RequestDump
FUNC a550 24 0 google_breakpad::CrashGenerationClient::TryCreate
FUNC a580 f 0 google_breakpad::CrashGenerationClient::~CrashGenerationClient
FUNC a590 13 0 google_breakpad::CrashGenerationClient::~CrashGenerationClient
FUNC a5b0 69 0 google_breakpad::LinuxDumper::~LinuxDumper
FUNC a620 12 0 google_breakpad::LinuxDumper::~LinuxDumper
FUNC a640 131 0 google_breakpad::LinuxDumper::ReadAuxv
FUNC a780 32 0 google_breakpad::LinuxDumper::Init
FUNC a7c0 4b 0 google_breakpad::LinuxDumper::FindMapping
FUNC a810 73 0 google_breakpad::LinuxDumper::GetStackInfo
FUNC a890 214 0 google_breakpad::LinuxDumper::HandleDeletedFileInMapping
FUNC aab0 35a 0 google_breakpad::LinuxDumper::ElfFileIdentifierForMapping
FUNC ae10 4ca 0 google_breakpad::LinuxDumper::LinuxDumper
FUNC b2e0 82d 0 google_breakpad::LinuxDumper::EnumerateMappings
FUNC bb10 2eb 0 std::vector<google_breakpad::MappingInfo*, google_breakpad::PageStdAllocator<google_breakpad::MappingInfo*> >::_M_insert_aux
FUNC be00 42c 0 std::vector<long unsigned int, google_breakpad::PageStdAllocator<long unsigned int> >::_M_fill_insert
FUNC c230 438 0 std::vector<google_breakpad::MappingInfo*, google_breakpad::PageStdAllocator<google_breakpad::MappingInfo*> >::_M_fill_insert
FUNC c670 3 0 google_breakpad::LinuxPtraceDumper::IsPostMortem
FUNC c680 b7 0 google_breakpad::LinuxPtraceDumper::CopyFromProcess
FUNC c740 c8 0 google_breakpad::LinuxPtraceDumper::BuildProcPath
FUNC c810 522 0 google_breakpad::LinuxPtraceDumper::GetThreadInfoByIndex
FUNC cd40 ba 0 google_breakpad::LinuxPtraceDumper::ThreadsResume
FUNC ce00 20 0 google_breakpad::LinuxPtraceDumper::LinuxPtraceDumper
FUNC ce20 37e 0 google_breakpad::LinuxPtraceDumper::EnumerateThreads
FUNC d1a0 22c 0 google_breakpad::LinuxPtraceDumper::ThreadsSuspend
FUNC d3d0 13 0 google_breakpad::LinuxPtraceDumper::~LinuxPtraceDumper
FUNC d3f0 20 0 google_breakpad::LinuxPtraceDumper::~LinuxPtraceDumper
FUNC d410 2e7 0 std::vector<int, google_breakpad::PageStdAllocator<int> >::_M_insert_aux
FUNC d700 42c 0 std::vector<int, google_breakpad::PageStdAllocator<int> >::_M_fill_insert
FUNC db30 d7 0 isLegalUTF8
FUNC dc10 105 0 ConvertUTF32toUTF16
FUNC dd20 e6 0 ConvertUTF16toUTF32
FUNC de10 1fa 0 ConvertUTF16toUTF8
FUNC e010 2b 0 isLegalUTF8Sequence
FUNC e040 27f 0 ConvertUTF8toUTF16
FUNC e2c0 1c3 0 ConvertUTF32toUTF8
FUNC e490 2a7 0 ConvertUTF8toUTF32
FUNC e740 13 0 google_breakpad::FileID::FileID
FUNC e760 1ff 0 google_breakpad::FileID::ElfFileIdentifierFromMappedFile
FUNC e960 5f 0 google_breakpad::FileID::ElfFileIdentifier
FUNC e9c0 11c 0 google_breakpad::FileID::ConvertIdentifierToString
FUNC eae0 10 0 google_breakpad::MemoryMappedFile::MemoryMappedFile
FUNC eaf0 4b 0 google_breakpad::MemoryMappedFile::Unmap
FUNC eb40 5 0 google_breakpad::MemoryMappedFile::~MemoryMappedFile
FUNC eb50 177 0 google_breakpad::MemoryMappedFile::Map
FUNC ecd0 14 0 google_breakpad::MemoryMappedFile::MemoryMappedFile
FUNC ecf0 40 0 google_breakpad::SafeReadLink
FUNC ed30 1f 0 google_breakpad::IsValidElf
FUNC ed50 5 0 google_breakpad::ElfClass
FUNC ed60 44d 0 google_breakpad::FindElfSection
FUNC f1b0 26f 0 google_breakpad::FindElfSegment
STACK CFI INIT 1ca4 2a .cfa: $rsp 8 + .ra: .cfa -8 + ^
STACK CFI INIT 1560 3d0 .cfa: $rsp 16 + .ra: .cfa -8 + ^
STACK CFI 1566 .cfa: $rsp 24 +
STACK CFI INIT 1f24 bd .cfa: $rsp 8 + .ra: .cfa -8 + ^
STACK CFI 1f25 $rbp: .cfa -16 + ^ .cfa: $rsp 16 +
STACK CFI 1f28 .cfa: $rbp 16 +
STACK CFI 1f2d $rbx: .cfa -24 + ^
STACK CFI 1fe0 .cfa: $rsp 8 +
STACK CFI INIT 1fe2 12 .cfa: $rsp 8 + .ra: .cfa -8 + ^
STACK CFI 1fe3 $rbp: .cfa -16 + ^ .cfa: $rsp 16 +
STACK CFI 1fe6 .cfa: $rbp 16 +
STACK CFI 1ff3 .cfa: $rsp 8 +
STACK CFI INIT 1d8d 39 .cfa: $rsp 8 + .ra: .cfa -8 + ^
STACK CFI 1d8e $rbp: .cfa -16 + ^ .cfa: $rsp 16 +
STACK CFI 1d91 .cfa: $rbp 16 +
STACK CFI 1dc5 .cfa: $rsp 8 +
STACK CFI INIT 1dc6 18 .cfa: $rsp 8 + .ra: .cfa -8 + ^
STACK CFI 1dc7 $rbp: .cfa -16 + ^ .cfa: $rsp 16 +
STACK CFI 1dca .cfa: $rbp 16 +
STACK CFI 1ddd .cfa: $rsp 8 +
STACK CFI INIT 1ff4 54 .cfa: $rsp 8 + .ra: .cfa -8 + ^
STACK CFI 1ff5 $rbp: .cfa -16 + ^ .cfa: $rsp 16 +
STACK CFI 1ff8 .cfa: $rbp 16 +
STACK CFI 1ffd $rbx: .cfa -24 + ^
STACK CFI 2047 .cfa: $rsp 8 +
STACK CFI INIT 1dde 145 .cfa: $rsp 8 + .ra: .cfa -8 + ^
STACK CFI 1ddf $rbp: .cfa -16 + ^ .cfa: $rsp 16 +
STACK CFI 1de2 .cfa: $rbp 16 +
STACK CFI 1dea $rbx: .cfa -24 + ^
STACK CFI 1f22 .cfa: $rsp 8 +
STACK CFI INIT 2050 f8 .cfa: $rsp 8 + .ra: .cfa -8 + ^
STACK CFI 205f $r13: .cfa -16 + ^ .cfa: $rsp 16 +
STACK CFI 2061 $r12: .cfa -24 + ^ .cfa: $rsp 24 +
STACK CFI 2069 $rbp: .cfa -32 + ^ .cfa: $rsp 32 +
STACK CFI 2071 $rbx: .cfa -40 + ^ .cfa: $rsp 40 +
STACK CFI 207f .cfa: $rsp 208 +
STACK CFI 211b .cfa: $rsp 40 +
STACK CFI 2121 $rbx: $rbx .cfa: $rsp 32 +
STACK CFI 2122 $rbp: $rbp .cfa: $rsp 24 +
STACK CFI 2124 $r12: $r12 .cfa: $rsp 16 +
STACK CFI 2126 $r13: $r13 .cfa: $rsp 8 +
STACK CFI 2138 $r12: .cfa -24 + ^ $r13: .cfa -16 + ^ $rbp: .cfa -32 + ^ $rbx: .cfa -40 + ^ .cfa: $rsp 208 +
STACK CFI 213f .cfa: $rsp 40 +
STACK CFI 2142 $rbx: $rbx .cfa: $rsp 32 +
STACK CFI 2143 $rbp: $rbp .cfa: $rsp 24 +
STACK CFI 2145 $r12: $r12 .cfa: $rsp 16 +
STACK CFI 2147 $r13: $r13 .cfa: $rsp 8 +
STACK CFI INIT 2150 6c .cfa: $rsp 8 + .ra: .cfa -8 + ^
STACK CFI 215b $r13: .cfa -16 + ^ .cfa: $rsp 16 +
STACK CFI 2164 $r12: .cfa -24 + ^ .cfa: $rsp 24 +
STACK CFI 2165 $rbp: .cfa -32 + ^ .cfa: $rsp 32 +
STACK CFI 216d $rbx: .cfa -40 + ^ .cfa: $rsp 40 +
STACK CFI 2178 .cfa: $rsp 48 +
STACK CFI 21a8 .cfa: $rsp 40 +
STACK CFI 21a9 $rbx: $rbx .cfa: $rsp 32 +
STACK CFI 21aa $rbp: $rbp .cfa: $rsp 24 +
STACK CFI 21ac $r12: $r12 .cfa: $rsp 16 +
STACK CFI 21ae $r13: $r13 .cfa: $rsp 8 +
STACK CFI 21b0 $r12: .cfa -24 + ^ $r13: .cfa -16 + ^ $rbp: .cfa -32 + ^ $rbx: .cfa -40 + ^ .cfa: $rsp 48 +
STACK CFI INIT 21c0 3e0 .cfa: $rsp 8 + .ra: .cfa -8 + ^
STACK CFI 21c2 $r14: .cfa -16 + ^ .cfa: $rsp 16 +
STACK CFI 21c4 $r13: .cfa -24 + ^ .cfa: $rsp 24 +
STACK CFI 21c6 $r12: .cfa -32 + ^ .cfa: $rsp 32 +
STACK CFI 21c7 $rbp: .cfa -40 + ^ .cfa: $rsp 40 +
STACK CFI 21c8 $rbx: .cfa -48 + ^ .cfa: $rsp 48 +
STACK CFI 21cf .cfa: $rsp 112 +
STACK CFI 235c .cfa: $rsp 48 +
STACK CFI 235d .cfa: $rsp 40 +
STACK CFI 235e .cfa: $rsp 32 +
STACK CFI 2360 .cfa: $rsp 24 +
STACK CFI 2362 .cfa: $rsp 16 +
STACK CFI 2364 .cfa: $rsp 8 +
STACK CFI 2368 .cfa: $rsp 112 +
STACK CFI INIT 25a0 ce .cfa: $rsp 8 + .ra: .cfa -8 + ^
STACK CFI 25a2 $r15: .cfa -16 + ^ .cfa: $rsp 16 +
STACK CFI 25a4 $r14: .cfa -24 + ^ .cfa: $rsp 24 +
STACK CFI 25a9 $r13: .cfa -32 + ^ .cfa: $rsp 32 +
STACK CFI 25b2 $r12: .cfa -40 + ^ .cfa: $rsp 40 +
STACK CFI 25b9 $rbp: .cfa -48 + ^ .cfa: $rsp 48 +
STACK CFI 25bf $rbx: .cfa -56 + ^ .cfa: $rsp 56 +
STACK CFI 25c3 .cfa: $rsp 64 +
STACK CFI 262d .cfa: $rsp 56 +
STACK CFI 263a .cfa: $rsp 48 +
STACK CFI 263b .cfa: $rsp 40 +
STACK CFI 263d .cfa: $rsp 32 +
STACK CFI 263f .cfa: $rsp 24 +
STACK CFI 2641 .cfa: $rsp 16 +
STACK CFI 2643 .cfa: $rsp 8 +
STACK CFI 2650 .cfa: $rsp 64 +
STACK CFI 2659 .cfa: $rsp 56 +
STACK CFI 265a .cfa: $rsp 48 +
STACK CFI 265b .cfa: $rsp 40 +
STACK CFI 265d .cfa: $rsp 32 +
STACK CFI 265f .cfa: $rsp 24 +
STACK CFI 2661 .cfa: $rsp 16 +
STACK CFI 2663 .cfa: $rsp 8 +
STACK CFI 2664 .cfa: $rsp 64 +
STACK CFI INIT 2670 47f .cfa: $rsp 8 + .ra: .cfa -8 + ^
STACK CFI 2672 $r15: .cfa -16 + ^ .cfa: $rsp 16 +
STACK CFI 2674 $r14: .cfa -24 + ^ .cfa: $rsp 24 +
STACK CFI 2676 $r13: .cfa -32 + ^ .cfa: $rsp 32 +
STACK CFI 2678 $r12: .cfa -40 + ^ .cfa: $rsp 40 +
STACK CFI 2679 $rbp: .cfa -48 + ^ .cfa: $rsp 48 +
STACK CFI 267d $rbx: .cfa -56 + ^ .cfa: $rsp 56 +
STACK CFI 2684 .cfa: $rsp 144 +
STACK CFI 269e .cfa: $rsp 56 +
STACK CFI 26a1 .cfa: $rsp 48 +
STACK CFI 26a2 .cfa: $rsp 40 +
STACK CFI 26a4 .cfa: $rsp 32 +
STACK CFI 26a6 .cfa: $rsp 24 +
STACK CFI 26a8 .cfa: $rsp 16 +
STACK CFI 26aa .cfa: $rsp 8 +
STACK CFI 26b0 .cfa: $rsp 144 +
STACK CFI INIT 2af0 194 .cfa: $rsp 8 + .ra: .cfa -8 + ^
STACK CFI 2af2 $r13: .cfa -16 + ^ .cfa: $rsp 16 +
STACK CFI 2af4 $r12: .cfa -24 + ^ .cfa: $rsp 24 +
STACK CFI 2af8 $rbp: .cfa -32 + ^ .cfa: $rsp 32 +
STACK CFI 2afc $rbx: .cfa -40 + ^ .cfa: $rsp 40 +
STACK CFI 2b06 .cfa: $rsp 1632 +
STACK CFI 2c3d .cfa: $rsp 40 +
STACK CFI 2c3e .cfa: $rsp 32 +
STACK CFI 2c3f .cfa: $rsp 24 +
STACK CFI 2c41 .cfa: $rsp 16 +
STACK CFI 2c43 .cfa: $rsp 8 +
STACK CFI 2c48 .cfa: $rsp 1632 +
STACK CFI INIT 2c90 42 .cfa: $rsp 8 + .ra: .cfa -8 + ^
STACK CFI 2c92 $r12: .cfa -16 + ^ .cfa: $rsp 16 +
STACK CFI 2c96 $rbp: .cfa -24 + ^ .cfa: $rsp 24 +
STACK CFI 2c9a $rbx: .cfa -32 + ^ .cfa: $rsp 32 +
STACK CFI 2cb0 .cfa: $rsp 24 +
STACK CFI 2cb1 .cfa: $rsp 16 +
STACK CFI 2cb5 .cfa: $rsp 8 +
STACK CFI 2cc0 .cfa: $rsp 32 +
STACK CFI 2cca .cfa: $rsp 24 +
STACK CFI 2ccb .cfa: $rsp 16 +
STACK CFI 2ccd .cfa: $rsp 8 +
STACK CFI INIT 2ce0 17b .cfa: $rsp 8 + .ra: .cfa -8 + ^
STACK CFI 2ce2 $r15: .cfa -16 + ^ .cfa: $rsp 16 +
STACK CFI 2ce4 $r14: .cfa -24 + ^ .cfa: $rsp 24 +
STACK CFI 2ce6 $r13: .cfa -32 + ^ .cfa: $rsp 32 +
STACK CFI 2ceb $r12: .cfa -40 + ^ .cfa: $rsp 40 +
STACK CFI 2cef $rbp: .cfa -48 + ^ .cfa: $rsp 48 +
STACK CFI 2cf2 $rbx: .cfa -56 + ^ .cfa: $rsp 56 +
STACK CFI 2cf9 .cfa: $rsp 224 +
STACK CFI 2da4 .cfa: $rsp 56 +
STACK CFI 2da5 .cfa: $rsp 48 +
STACK CFI 2da6 .cfa: $rsp 40 +
STACK CFI 2da8 .cfa: $rsp 32 +
STACK CFI 2daa .cfa: $rsp 24 +
STACK CFI 2dac .cfa: $rsp 16 +
STACK CFI 2dae .cfa: $rsp 8 +
STACK CFI 2db0 .cfa: $rsp 224 +
STACK CFI INIT 2e60 56 .cfa: $rsp 8 + .ra: .cfa -8 + ^
STACK CFI 2e67 .cfa: $rsp 1104 +
STACK CFI 2eb5 .cfa: $rsp 8 +
STACK CFI INIT 2ec0 c6 .cfa: $rsp 8 + .ra: .cfa -8 + ^
STACK CFI 2ec2 $r15: .cfa -16 + ^ .cfa: $rsp 16 +
STACK CFI 2ec4 $r14: .cfa -24 + ^ .cfa: $rsp 24 +
STACK CFI 2ec9 $r13: .cfa -32 + ^ .cfa: $rsp 32 +
STACK CFI 2ecb $r12: .cfa -40 + ^ .cfa: $rsp 40 +
STACK CFI 2ed2 $rbp: .cfa -48 + ^ .cfa: $rsp 48 +
STACK CFI 2ed5 $rbx: .cfa -56 + ^ .cfa: $rsp 56 +
STACK CFI 2ed9 .cfa: $rsp 80 +
STACK CFI 2f56 .cfa: $rsp 56 +
STACK CFI 2f57 .cfa: $rsp 48 +
STACK CFI 2f58 .cfa: $rsp 40 +
STACK CFI 2f5a .cfa: $rsp 32 +
STACK CFI 2f5c .cfa: $rsp 24 +
STACK CFI 2f5e .cfa: $rsp 16 +
STACK CFI 2f60 .cfa: $rsp 8 +
STACK CFI 2f68 .cfa: $rsp 80 +
STACK CFI 2f71 .cfa: $rsp 56 +
STACK CFI 2f72 .cfa: $rsp 48 +
STACK CFI 2f73 .cfa: $rsp 40 +
STACK CFI 2f75 .cfa: $rsp 32 +
STACK CFI 2f77 .cfa: $rsp 24 +
STACK CFI 2f79 .cfa: $rsp 16 +
STACK CFI 2f7b .cfa: $rsp 8 +
STACK CFI 2f7c .cfa: $rsp 80 +
STACK CFI INIT 2f90 58 .cfa: $rsp 8 + .ra: .cfa -8 + ^
STACK CFI 2f94 .cfa: $rsp 32 +
STACK CFI 2fc4 .cfa: $rsp 8 +
STACK CFI 2fc8 .cfa: $rsp 32 +
STACK CFI 2fe7 .cfa: $rsp 8 +
STACK CFI INIT 2ff0 28 .cfa: $rsp 8 + .ra: .cfa -8 + ^
STACK CFI 2ff1 $rbx: .cfa -16 + ^ .cfa: $rsp 16 +
STACK CFI 3017 .cfa: $rsp 8 +
STACK CFI INIT 3020 163 .cfa: $rsp 8 + .ra: .cfa -8 + ^
STACK CFI 3021 $rbx: .cfa -16 + ^ .cfa: $rsp 16 +
STACK CFI 3028 .cfa: $rsp 1616 +
STACK CFI 308c .cfa: $rsp 16 +
STACK CFI 308d .cfa: $rsp 8 +
STACK CFI 3090 .cfa: $rsp 1616 +
STACK CFI 3157 .cfa: $rsp 16 +
STACK CFI 3158 .cfa: $rsp 8 +
STACK CFI 3160 .cfa: $rsp 1616 +
STACK CFI INIT 3190 d1 .cfa: $rsp 8 + .ra: .cfa -8 + ^
STACK CFI 3192 $r13: .cfa -16 + ^ .cfa: $rsp 16 +
STACK CFI 319c $r12: .cfa -24 + ^ .cfa: $rsp 24 +
STACK CFI 31a4 $rbp: .cfa -32 + ^ .cfa: $rsp 32 +
STACK CFI 31a5 $rbx: .cfa -40 + ^ .cfa: $rsp 40 +
STACK CFI 31ac .cfa: $rsp 640 +
STACK CFI 324b .cfa: $rsp 40 +
STACK CFI 3252 .cfa: $rsp 32 +
STACK CFI 3253 .cfa: $rsp 24 +
STACK CFI 3255 .cfa: $rsp 16 +
STACK CFI 3257 .cfa: $rsp 8 +
STACK CFI 325c .cfa: $rsp 640 +
STACK CFI INIT 3270 5d .cfa: $rsp 8 + .ra: .cfa -8 + ^
STACK CFI 3272 $r12: .cfa -16 + ^ .cfa: $rsp 16 +
STACK CFI 3276 $rbp: .cfa -24 + ^ .cfa: $rsp 24 +
STACK CFI 327b $rbx: .cfa -32 + ^ .cfa: $rsp 32 +
STACK CFI 32b7 .cfa: $rsp 24 +
STACK CFI 32be .cfa: $rsp 16 +
STACK CFI 32c0 .cfa: $rsp 8 +
STACK CFI 32c8 .cfa: $rsp 32 +
STACK CFI 32c9 .cfa: $rsp 24 +
STACK CFI 32ca .cfa: $rsp 16 +
STACK CFI 32cc .cfa: $rsp 8 +
STACK CFI INIT 32d0 31 .cfa: $rsp 8 + .ra: .cfa -8 + ^
STACK CFI 32d1 $rbx: .cfa -16 + ^ .cfa: $rsp 16 +
STACK CFI 32ef .cfa: $rsp 8 +
STACK CFI 32f0 .cfa: $rsp 16 +
STACK CFI 32fc .cfa: $rsp 8 +
STACK CFI INIT 3310 170 .cfa: $rsp 8 + .ra: .cfa -8 + ^
STACK CFI 3312 $r15: .cfa -16 + ^ .cfa: $rsp 16 +
STACK CFI 331a $r14: .cfa -24 + ^ .cfa: $rsp 24 +
STACK CFI 331f $r13: .cfa -32 + ^ .cfa: $rsp 32 +
STACK CFI 3324 $r12: .cfa -40 + ^ .cfa: $rsp 40 +
STACK CFI 3328 $rbp: .cfa -48 + ^ .cfa: $rsp 48 +
STACK CFI 3329 $rbx: .cfa -56 + ^ .cfa: $rsp 56 +
STACK CFI 332d .cfa: $rsp 144 +
STACK CFI 33c8 .cfa: $rsp 56 +
STACK CFI 33c9 .cfa: $rsp 48 +
STACK CFI 33ca .cfa: $rsp 40 +
STACK CFI 33cc .cfa: $rsp 32 +
STACK CFI 33ce .cfa: $rsp 24 +
STACK CFI 33d0 .cfa: $rsp 16 +
STACK CFI 33d2 .cfa: $rsp 8 +
STACK CFI 33d3 .cfa: $rsp 144 +
STACK CFI INIT 3910 19a .cfa: $rsp 8 + .ra: .cfa -8 + ^
STACK CFI 3912 $r14: .cfa -16 + ^ .cfa: $rsp 16 +
STACK CFI 3914 $r13: .cfa -24 + ^ .cfa: $rsp 24 +
STACK CFI 3916 $r12: .cfa -32 + ^ .cfa: $rsp 32 +
STACK CFI 3917 $rbp: .cfa -40 + ^ .cfa: $rsp 40 +
STACK CFI 391b $rbx: .cfa -48 + ^ .cfa: $rsp 48 +
STACK CFI 3922 .cfa: $rsp 64 +
STACK CFI 396e .cfa: $rsp 48 +
STACK CFI 396f .cfa: $rsp 40 +
STACK CFI 3970 .cfa: $rsp 32 +
STACK CFI 3972 .cfa: $rsp 24 +
STACK CFI 3974 .cfa: $rsp 16 +
STACK CFI 3976 .cfa: $rsp 8 +
STACK CFI 3980 .cfa: $rsp 64 +
STACK CFI INIT 3480 319 .cfa: $rsp 8 + .ra: .cfa -8 + ^
STACK CFI 3482 $r15: .cfa -16 + ^ .cfa: $rsp 16 +
STACK CFI 3487 $r14: .cfa -24 + ^ .cfa: $rsp 24 +
STACK CFI 348d $r13: .cfa -32 + ^ .cfa: $rsp 32 +
STACK CFI 348f $r12: .cfa -40 + ^ .cfa: $rsp 40 +
STACK CFI 3490 $rbp: .cfa -48 + ^ .cfa: $rsp 48 +
STACK CFI 3491 $rbx: .cfa -56 + ^ .cfa: $rsp 56 +
STACK CFI 3498 .cfa: $rsp 80 +
STACK CFI 357a .cfa: $rsp 56 +
STACK CFI 357b .cfa: $rsp 48 +
STACK CFI 357c .cfa: $rsp 40 +
STACK CFI 357e .cfa: $rsp 32 +
STACK CFI 3580 .cfa: $rsp 24 +
STACK CFI 3582 .cfa: $rsp 16 +
STACK CFI 3584 .cfa: $rsp 8 +
STACK CFI 3588 .cfa: $rsp 80 +
STACK CFI INIT 37a0 169 .cfa: $rsp 8 + .ra: .cfa -8 + ^
STACK CFI 37a2 $r14: .cfa -16 + ^ .cfa: $rsp 16 +
STACK CFI 37a7 $r13: .cfa -24 + ^ .cfa: $rsp 24 +
STACK CFI 37ac $r12: .cfa -32 + ^ .cfa: $rsp 32 +
STACK CFI 37ad $rbp: .cfa -40 + ^ .cfa: $rsp 40 +
STACK CFI 37b4 $rbx: .cfa -48 + ^ .cfa: $rsp 48 +
STACK CFI 37bb .cfa: $rsp 256 +
STACK CFI 3857 .cfa: $rsp 48 +
STACK CFI 385b .cfa: $rsp 40 +
STACK CFI 385c .cfa: $rsp 32 +
STACK CFI 385e .cfa: $rsp 24 +
STACK CFI 3860 .cfa: $rsp 16 +
STACK CFI 3862 .cfa: $rsp 8 +
STACK CFI 3863 .cfa: $rsp 256 +
STACK CFI INIT 3ab0 6f .cfa: $rsp 8 + .ra: .cfa -8 + ^
STACK CFI 3ab1 $rbp: .cfa -16 + ^ .cfa: $rsp 16 +
STACK CFI 3ab9 $rbx: .cfa -24 + ^ .cfa: $rsp 24 +
STACK CFI 3ac4 .cfa: $rsp 32 +
STACK CFI 3afd .cfa: $rsp 24 +
STACK CFI 3afe .cfa: $rsp 16 +
STACK CFI 3aff .cfa: $rsp 8 +
STACK CFI 3b00 .cfa: $rsp 32 +
STACK CFI INIT 3b20 2d7 .cfa: $rsp 8 + .ra: .cfa -8 + ^
STACK CFI 3b22 $r14: .cfa -16 + ^ .cfa: $rsp 16 +
STACK CFI 3b24 $r13: .cfa -24 + ^ .cfa: $rsp 24 +
STACK CFI 3b26 $r12: .cfa -32 + ^ .cfa: $rsp 32 +
STACK CFI 3b27 $rbp: .cfa -40 + ^ .cfa: $rsp 40 +
STACK CFI 3b28 $rbx: .cfa -48 + ^ .cfa: $rsp 48 +
STACK CFI 3b2f .cfa: $rsp 176 +
STACK CFI 3cb9 .cfa: $rsp 48 +
STACK CFI 3cba .cfa: $rsp 40 +
STACK CFI 3cbb .cfa: $rsp 32 +
STACK CFI 3cbd .cfa: $rsp 24 +
STACK CFI 3cbf .cfa: $rsp 16 +
STACK CFI 3cc1 .cfa: $rsp 8 +
STACK CFI 3cc2 .cfa: $rsp 176 +
STACK CFI INIT 3e00 86 .cfa: $rsp 8 + .ra: .cfa -8 + ^
STACK CFI 3e01 $rbp: .cfa -16 + ^ .cfa: $rsp 16 +
STACK CFI 3e05 $rbx: .cfa -24 + ^ .cfa: $rsp 24 +
STACK CFI 3e09 .cfa: $rsp 32 +
STACK CFI 3e61 .cfa: $rsp 24 +
STACK CFI 3e65 .cfa: $rsp 16 +
STACK CFI 3e66 .cfa: $rsp 8 +
STACK CFI 3e67 .cfa: $rsp 32 +
STACK CFI INIT 3e90 34 .cfa: $rsp 8 + .ra: .cfa -8 + ^
STACK CFI 3e9c $rbx: .cfa -16 + ^ .cfa: $rsp 16 +
STACK CFI 3ec3 .cfa: $rsp 8 +
STACK CFI INIT 1930 29 .cfa: $rsp 8 + .ra: .cfa -8 + ^
STACK CFI 1936 $rbx: .cfa -16 + ^ .cfa: $rsp 16 +
STACK CFI 1958 .cfa: $rsp 8 +
STACK CFI INIT 3ed0 4d .cfa: $rsp 8 + .ra: .cfa -8 + ^
STACK CFI 3ed1 $rbp: .cfa -16 + ^ .cfa: $rsp 16 +
STACK CFI 3ed6 $rbx: .cfa -24 + ^ .cfa: $rsp 24 +
STACK CFI 3edd .cfa: $rsp 32 +
STACK CFI 3ef0 .cfa: $rsp 24 +
STACK CFI 3ef4 .cfa: $rsp 16 +
STACK CFI 3ef5 .cfa: $rsp 8 +
STACK CFI 3f00 .cfa: $rsp 32 +
STACK CFI INIT 195a 4a .cfa: $rsp 8 + .ra: .cfa -8 + ^
STACK CFI 195c $r13: .cfa -16 + ^ .cfa: $rsp 16 +
STACK CFI 1964 $r12: .cfa -24 + ^ .cfa: $rsp 24 +
STACK CFI 196b $rbp: .cfa -32 + ^ .cfa: $rsp 32 +
STACK CFI 196c $rbx: .cfa -40 + ^ .cfa: $rsp 40 +
STACK CFI 196d .cfa: $rsp 48 +
STACK CFI 199d .cfa: $rsp 40 +
STACK CFI 199e .cfa: $rsp 32 +
STACK CFI 199f .cfa: $rsp 24 +
STACK CFI 19a1 .cfa: $rsp 16 +
STACK CFI 19a3 .cfa: $rsp 8 +
STACK CFI INIT 19a4 20 .cfa: $rsp 8 + .ra: .cfa -8 + ^
STACK CFI 19ac .cfa: $rsp 16 +
STACK CFI INIT 19c4 20 .cfa: $rsp 8 + .ra: .cfa -8 + ^
STACK CFI 19cc .cfa: $rsp 16 +
STACK CFI INIT 3f20 1e .cfa: $rsp 8 + .ra: .cfa -8 + ^
STACK CFI 3f39 .cfa: $rsp 16 +
STACK CFI INIT 19e4 20 .cfa: $rsp 8 + .ra: .cfa -8 + ^
STACK CFI 19ec .cfa: $rsp 16 +
STACK CFI INIT 1a04 20 .cfa: $rsp 8 + .ra: .cfa -8 + ^
STACK CFI 1a0c .cfa: $rsp 16 +
STACK CFI INIT 8120 13f .cfa: $rsp 8 + .ra: .cfa -8 + ^
STACK CFI 8122 $r15: .cfa -16 + ^ .cfa: $rsp 16 +
STACK CFI 8124 $r14: .cfa -24 + ^ .cfa: $rsp 24 +
STACK CFI 8126 $r13: .cfa -32 + ^ .cfa: $rsp 32 +
STACK CFI 8128 $r12: .cfa -40 + ^ .cfa: $rsp 40 +
STACK CFI 8129 $rbp: .cfa -48 + ^ .cfa: $rsp 48 +
STACK CFI 812d $rbx: .cfa -56 + ^ .cfa: $rsp 56 +
STACK CFI 8131 .cfa: $rsp 64 +
STACK CFI 816f .cfa: $rsp 56 +
STACK CFI 8170 .cfa: $rsp 48 +
STACK CFI 8171 .cfa: $rsp 40 +
STACK CFI 8173 .cfa: $rsp 32 +
STACK CFI 8175 .cfa: $rsp 24 +
STACK CFI 8177 .cfa: $rsp 16 +
STACK CFI 8179 .cfa: $rsp 8 +
STACK CFI 8180 .cfa: $rsp 64 +
STACK CFI 81d1 .cfa: $rsp 56 +
STACK CFI 81d4 .cfa: $rsp 48 +
STACK CFI 81d5 .cfa: $rsp 40 +
STACK CFI 81d7 .cfa: $rsp 32 +
STACK CFI 81d9 .cfa: $rsp 24 +
STACK CFI 81db .cfa: $rsp 16 +
STACK CFI 81dd .cfa: $rsp 8 +
STACK CFI 81e0 .cfa: $rsp 64 +
STACK CFI 822d .cfa: $rsp 56 +
STACK CFI 8233 .cfa: $rsp 48 +
STACK CFI 8234 .cfa: $rsp 40 +
STACK CFI 8236 .cfa: $rsp 32 +
STACK CFI 8238 .cfa: $rsp 24 +
STACK CFI 823a .cfa: $rsp 16 +
STACK CFI 823c .cfa: $rsp 8 +
STACK CFI 8240 .cfa: $rsp 64 +
STACK CFI 8254 .cfa: $rsp 56 +
STACK CFI 8255 .cfa: $rsp 48 +
STACK CFI 8256 .cfa: $rsp 40 +
STACK CFI 8258 .cfa: $rsp 32 +
STACK CFI 825a .cfa: $rsp 24 +
STACK CFI 825c .cfa: $rsp 16 +
STACK CFI 825e .cfa: $rsp 8 +
STACK CFI INIT 1a24 1b7 .cfa: $rsp 8 + .ra: .cfa -8 + ^
STACK CFI 1a26 $r15: .cfa -16 + ^ .cfa: $rsp 16 +
STACK CFI 1a2f $r14: .cfa -24 + ^ .cfa: $rsp 24 +
STACK CFI 1a37 $r13: .cfa -32 + ^ .cfa: $rsp 32 +
STACK CFI 1a39 $r12: .cfa -40 + ^ .cfa: $rsp 40 +
STACK CFI 1a3a $rbp: .cfa -48 + ^ .cfa: $rsp 48 +
STACK CFI 1a3b $rbx: .cfa -56 + ^ .cfa: $rsp 56 +
STACK CFI 1a3f .cfa: $rsp 112 +
STACK CFI 1bce .cfa: $rsp 56 +
STACK CFI 1bd1 .cfa: $rsp 48 +
STACK CFI 1bd2 .cfa: $rsp 40 +
STACK CFI 1bd4 .cfa: $rsp 32 +
STACK CFI 1bd6 .cfa: $rsp 24 +
STACK CFI 1bd8 .cfa: $rsp 16 +
STACK CFI 1bda .cfa: $rsp 8 +
STACK CFI INIT 1bdc 68 .cfa: $rsp 8 + .ra: .cfa -8 + ^
STACK CFI 1bde $r12: .cfa -16 + ^ .cfa: $rsp 16 +
STACK CFI 1be2 $rbp: .cfa -24 + ^ .cfa: $rsp 24 +
STACK CFI 1be3 $rbx: .cfa -32 + ^ .cfa: $rsp 32 +
STACK CFI 1bed .cfa: $rsp 304 +
STACK CFI 1c3f .cfa: $rsp 32 +
STACK CFI 1c40 .cfa: $rsp 24 +
STACK CFI 1c41 .cfa: $rsp 16 +
STACK CFI 1c43 .cfa: $rsp 8 +
STACK CFI INIT 8260 249 .cfa: $rsp 8 + .ra: .cfa -8 + ^
STACK CFI 8262 $r15: .cfa -16 + ^ .cfa: $rsp 16 +
STACK CFI 8264 $r14: .cfa -24 + ^ .cfa: $rsp 24 +
STACK CFI 826a $r13: .cfa -32 + ^ .cfa: $rsp 32 +
STACK CFI 826c $r12: .cfa -40 + ^ .cfa: $rsp 40 +
STACK CFI 826d $rbp: .cfa -48 + ^ .cfa: $rsp 48 +
STACK CFI 8271 $rbx: .cfa -56 + ^ .cfa: $rsp 56 +
STACK CFI 8278 .cfa: $rsp 64 +
STACK CFI 82ff .cfa: $rsp 56 +
STACK CFI 8302 .cfa: $rsp 48 +
STACK CFI 8303 .cfa: $rsp 40 +
STACK CFI 8305 .cfa: $rsp 32 +
STACK CFI 8307 .cfa: $rsp 24 +
STACK CFI 8309 .cfa: $rsp 16 +
STACK CFI 830b .cfa: $rsp 8 +
STACK CFI 8310 .cfa: $rsp 64 +
STACK CFI 83d6 .cfa: $rsp 56 +
STACK CFI 83d7 .cfa: $rsp 48 +
STACK CFI 83d8 .cfa: $rsp 40 +
STACK CFI 83da .cfa: $rsp 32 +
STACK CFI 83dc .cfa: $rsp 24 +
STACK CFI 83de .cfa: $rsp 16 +
STACK CFI 83e5 .cfa: $rsp 8 +
STACK CFI 83f0 .cfa: $rsp 64 +
STACK CFI INIT 84b0 22 .cfa: $rsp 8 + .ra: .cfa -8 + ^
STACK CFI INIT 84e0 22 .cfa: $rsp 8 + .ra: .cfa -8 + ^
STACK CFI INIT 8510 22 .cfa: $rsp 8 + .ra: .cfa -8 + ^
STACK CFI INIT 8540 22 .cfa: $rsp 8 + .ra: .cfa -8 + ^
STACK CFI INIT 8570 22 .cfa: $rsp 8 + .ra: .cfa -8 + ^
STACK CFI INIT 85a0 307 .cfa: $rsp 8 + .ra: .cfa -8 + ^
STACK CFI 85a2 $r15: .cfa -16 + ^ .cfa: $rsp 16 +
STACK CFI 85a4 $r14: .cfa -24 + ^ .cfa: $rsp 24 +
STACK CFI 85a9 $r13: .cfa -32 + ^ .cfa: $rsp 32 +
STACK CFI 85ab $r12: .cfa -40 + ^ .cfa: $rsp 40 +
STACK CFI 85ac $rbp: .cfa -48 + ^ .cfa: $rsp 48 +
STACK CFI 85b0 $rbx: .cfa -56 + ^ .cfa: $rsp 56 +
STACK CFI 85b7 .cfa: $rsp 96 +
STACK CFI 8615 .cfa: $rsp 56 +
STACK CFI 8616 .cfa: $rsp 48 +
STACK CFI 8617 .cfa: $rsp 40 +
STACK CFI 8619 .cfa: $rsp 32 +
STACK CFI 861b .cfa: $rsp 24 +
STACK CFI 861d .cfa: $rsp 16 +
STACK CFI 861f .cfa: $rsp 8 +
STACK CFI 8620 .cfa: $rsp 96 +
STACK CFI INIT 3f40 15c9 .cfa: $rsp 8 + .ra: .cfa -8 + ^
STACK CFI 3f42 $r15: .cfa -16 + ^ .cfa: $rsp 16 +
STACK CFI 3f44 $r14: .cfa -24 + ^ .cfa: $rsp 24 +
STACK CFI 3f46 $r13: .cfa -32 + ^ .cfa: $rsp 32 +
STACK CFI 3f48 $r12: .cfa -40 + ^ .cfa: $rsp 40 +
STACK CFI 3f49 $rbp: .cfa -48 + ^ .cfa: $rsp 48 +
STACK CFI 3f4a $rbx: .cfa -56 + ^ .cfa: $rsp 56 +
STACK CFI 3f54 .cfa: $rsp 2416 +
STACK CFI 41ef .cfa: $rsp 56 +
STACK CFI 41f0 .cfa: $rsp 48 +
STACK CFI 41f1 .cfa: $rsp 40 +
STACK CFI 41f3 .cfa: $rsp 32 +
STACK CFI 41f5 .cfa: $rsp 24 +
STACK CFI 41f7 .cfa: $rsp 16 +
STACK CFI 41f9 .cfa: $rsp 8 +
STACK CFI 4200 .cfa: $rsp 2416 +
STACK CFI INIT 88b0 3c4 .cfa: $rsp 8 + .ra: .cfa -8 + ^
STACK CFI 88b2 $r15: .cfa -16 + ^ .cfa: $rsp 16 +
STACK CFI 88b4 $r14: .cfa -24 + ^ .cfa: $rsp 24 +
STACK CFI 88b6 $r13: .cfa -32 + ^ .cfa: $rsp 32 +
STACK CFI 88b8 $r12: .cfa -40 + ^ .cfa: $rsp 40 +
STACK CFI 88b9 $rbp: .cfa -48 + ^ .cfa: $rsp 48 +
STACK CFI 88bd $rbx: .cfa -56 + ^ .cfa: $rsp 56 +
STACK CFI 88c1 .cfa: $rsp 96 +
STACK CFI 8ad8 .cfa: $rsp 56 +
STACK CFI 8ad9 .cfa: $rsp 48 +
STACK CFI 8ada .cfa: $rsp 40 +
STACK CFI 8adc .cfa: $rsp 32 +
STACK CFI 8ade .cfa: $rsp 24 +
STACK CFI 8ae0 .cfa: $rsp 16 +
STACK CFI 8ae2 .cfa: $rsp 8 +
STACK CFI 8ae8 .cfa: $rsp 96 +
STACK CFI 8b59 .cfa: $rsp 56 +
STACK CFI 8b61 .cfa: $rsp 48 +
STACK CFI 8b62 .cfa: $rsp 40 +
STACK CFI 8b64 .cfa: $rsp 32 +
STACK CFI 8b66 .cfa: $rsp 24 +
STACK CFI 8b68 .cfa: $rsp 16 +
STACK CFI 8b6a .cfa: $rsp 8 +
STACK CFI 8b70 .cfa: $rsp 96 +
STACK CFI INIT 5510 1e18 .cfa: $rsp 8 + .ra: .cfa -8 + ^
STACK CFI 5512 $r15: .cfa -16 + ^ .cfa: $rsp 16 +
STACK CFI 5519 $r14: .cfa -24 + ^ .cfa: $rsp 24 +
STACK CFI 551f $r13: .cfa -32 + ^ .cfa: $rsp 32 +
STACK CFI 5521 $r12: .cfa -40 + ^ .cfa: $rsp 40 +
STACK CFI 5522 $rbp: .cfa -48 + ^ .cfa: $rsp 48 +
STACK CFI 5523 $rbx: .cfa -56 + ^ .cfa: $rsp 56 +
STACK CFI 552d .cfa: $rsp 2864 +
STACK CFI 5697 .cfa: $rsp 56 +
STACK CFI 5698 .cfa: $rsp 48 +
STACK CFI 5699 .cfa: $rsp 40 +
STACK CFI 569b .cfa: $rsp 32 +
STACK CFI 569d .cfa: $rsp 24 +
STACK CFI 569f .cfa: $rsp 16 +
STACK CFI 56a1 .cfa: $rsp 8 +
STACK CFI 56a8 .cfa: $rsp 2864 +
STACK CFI INIT 7330 3e0 .cfa: $rsp 8 + .ra: .cfa -8 + ^
STACK CFI 7332 $r15: .cfa -16 + ^ .cfa: $rsp 16 +
STACK CFI 7337 $r14: .cfa -24 + ^ .cfa: $rsp 24 +
STACK CFI 733e $r13: .cfa -32 + ^ .cfa: $rsp 32 +
STACK CFI 7343 $r12: .cfa -40 + ^ .cfa: $rsp 40 +
STACK CFI 7347 $rbp: .cfa -48 + ^ .cfa: $rsp 48 +
STACK CFI 7348 $rbx: .cfa -56 + ^ .cfa: $rsp 56 +
STACK CFI 734f .cfa: $rsp 384 +
STACK CFI 7399 .cfa: $rsp 56 +
STACK CFI 739c .cfa: $rsp 48 +
STACK CFI 739d .cfa: $rsp 40 +
STACK CFI 739f .cfa: $rsp 32 +
STACK CFI 73a1 .cfa: $rsp 24 +
STACK CFI 73a3 .cfa: $rsp 16 +
STACK CFI 73a5 .cfa: $rsp 8 +
STACK CFI 73b0 .cfa: $rsp 384 +
STACK CFI INIT 7710 e1 .cfa: $rsp 8 + .ra: .cfa -8 + ^
STACK CFI 7712 $r13: .cfa -16 + ^ .cfa: $rsp 16 +
STACK CFI 7728 $r12: .cfa -24 + ^ .cfa: $rsp 24 +
STACK CFI 7729 $rbp: .cfa -32 + ^ .cfa: $rsp 32 +
STACK CFI 772a $rbx: .cfa -40 + ^ .cfa: $rsp 40 +
STACK CFI 772e .cfa: $rsp 96 +
STACK CFI 77a4 .cfa: $rsp 40 +
STACK CFI 77a8 .cfa: $rsp 32 +
STACK CFI 77a9 .cfa: $rsp 24 +
STACK CFI 77ab .cfa: $rsp 16 +
STACK CFI 77ad .cfa: $rsp 8 +
STACK CFI 77ae .cfa: $rsp 96 +
STACK CFI INIT 7800 e1 .cfa: $rsp 8 + .ra: .cfa -8 + ^
STACK CFI 7802 $r13: .cfa -16 + ^ .cfa: $rsp 16 +
STACK CFI 7815 $r12: .cfa -24 + ^ .cfa: $rsp 24 +
STACK CFI 7818 $rbp: .cfa -32 + ^ .cfa: $rsp 32 +
STACK CFI 7819 $rbx: .cfa -40 + ^ .cfa: $rsp 40 +
STACK CFI 781d .cfa: $rsp 96 +
STACK CFI 7894 .cfa: $rsp 40 +
STACK CFI 7898 .cfa: $rsp 32 +
STACK CFI 7899 .cfa: $rsp 24 +
STACK CFI 789b .cfa: $rsp 16 +
STACK CFI 789d .cfa: $rsp 8 +
STACK CFI 789e .cfa: $rsp 96 +
STACK CFI INIT 78f0 2b .cfa: $rsp 8 + .ra: .cfa -8 + ^
STACK CFI 78f4 .cfa: $rsp 32 +
STACK CFI 791a .cfa: $rsp 8 +
STACK CFI INIT 7920 2a .cfa: $rsp 8 + .ra: .cfa -8 + ^
STACK CFI 7924 .cfa: $rsp 32 +
STACK CFI 7949 .cfa: $rsp 8 +
STACK CFI INIT 7950 2c .cfa: $rsp 8 + .ra: .cfa -8 + ^
STACK CFI 7954 .cfa: $rsp 32 +
STACK CFI 797b .cfa: $rsp 8 +
STACK CFI INIT 7980 2b .cfa: $rsp 8 + .ra: .cfa -8 + ^
STACK CFI 7984 .cfa: $rsp 32 +
STACK CFI 79aa .cfa: $rsp 8 +
STACK CFI INIT 79b0 452 .cfa: $rsp 8 + .ra: .cfa -8 + ^
STACK CFI 79b2 $r15: .cfa -16 + ^ .cfa: $rsp 16 +
STACK CFI 79b4 $r14: .cfa -24 + ^ .cfa: $rsp 24 +
STACK CFI 79b9 $r13: .cfa -32 + ^ .cfa: $rsp 32 +
STACK CFI 79bb $r12: .cfa -40 + ^ .cfa: $rsp 40 +
STACK CFI 79bc $rbp: .cfa -48 + ^ .cfa: $rsp 48 +
STACK CFI 79bd $rbx: .cfa -56 + ^ .cfa: $rsp 56 +
STACK CFI 79c6 .cfa: $rsp 432 +
STACK CFI 7bd5 .cfa: $rsp 56 +
STACK CFI 7bd8 .cfa: $rsp 48 +
STACK CFI 7bd9 .cfa: $rsp 40 +
STACK CFI 7bdb .cfa: $rsp 32 +
STACK CFI 7bdd .cfa: $rsp 24 +
STACK CFI 7bdf .cfa: $rsp 16 +
STACK CFI 7be1 .cfa: $rsp 8 +
STACK CFI 7be8 .cfa: $rsp 432 +
STACK CFI INIT 7e10 302 .cfa: $rsp 8 + .ra: .cfa -8 + ^
STACK CFI 7e12 $r15: .cfa -16 + ^ .cfa: $rsp 16 +
STACK CFI 7e17 $r14: .cfa -24 + ^ .cfa: $rsp 24 +
STACK CFI 7e19 $r13: .cfa -32 + ^ .cfa: $rsp 32 +
STACK CFI 7e1b $r12: .cfa -40 + ^ .cfa: $rsp 40 +
STACK CFI 7e1f $rbp: .cfa -48 + ^ .cfa: $rsp 48 +
STACK CFI 7e20 $rbx: .cfa -56 + ^ .cfa: $rsp 56 +
STACK CFI 7e27 .cfa: $rsp 208 +
STACK CFI 7f76 .cfa: $rsp 56 +
STACK CFI 7f79 .cfa: $rsp 48 +
STACK CFI 7f7a .cfa: $rsp 40 +
STACK CFI 7f7c .cfa: $rsp 32 +
STACK CFI 7f7e .cfa: $rsp 24 +
STACK CFI 7f80 .cfa: $rsp 16 +
STACK CFI 7f82 .cfa: $rsp 8 +
STACK CFI 7f88 .cfa: $rsp 208 +
STACK CFI INIT 1c44 20 .cfa: $rsp 8 + .ra: .cfa -8 + ^
STACK CFI 1c4c .cfa: $rsp 16 +
STACK CFI INIT 1c64 20 .cfa: $rsp 8 + .ra: .cfa -8 + ^
STACK CFI 1c6c .cfa: $rsp 16 +
STACK CFI INIT 8c80 1a .cfa: $rsp 8 + .ra: .cfa -8 + ^
STACK CFI INIT 8ca0 78 .cfa: $rsp 8 + .ra: .cfa -8 + ^
STACK CFI 8ca2 $r12: .cfa -16 + ^ .cfa: $rsp 16 +
STACK CFI 8ca6 $rbp: .cfa -24 + ^ .cfa: $rsp 24 +
STACK CFI 8ca7 $rbx: .cfa -32 + ^ .cfa: $rsp 32 +
STACK CFI 8cdf .cfa: $rsp 24 +
STACK CFI 8ce0 .cfa: $rsp 16 +
STACK CFI 8ce2 .cfa: $rsp 8 +
STACK CFI 8ce8 .cfa: $rsp 32 +
STACK CFI 8cf5 .cfa: $rsp 24 +
STACK CFI 8cf6 .cfa: $rsp 16 +
STACK CFI 8cf8 .cfa: $rsp 8 +
STACK CFI 8cf9 .cfa: $rsp 32 +
STACK CFI INIT 8d20 2c .cfa: $rsp 8 + .ra: .cfa -8 + ^
STACK CFI 8d34 .cfa: $rsp 16 +
STACK CFI INIT 8d50 69 .cfa: $rsp 8 + .ra: .cfa -8 + ^
STACK CFI 8d51 $rbp: .cfa -16 + ^ .cfa: $rsp 16 +
STACK CFI 8d57 $rbx: .cfa -24 + ^ .cfa: $rsp 24 +
STACK CFI 8d5e .cfa: $rsp 32 +
STACK CFI 8d98 .cfa: $rsp 24 +
STACK CFI 8d99 .cfa: $rsp 16 +
STACK CFI 8d9a .cfa: $rsp 8 +
STACK CFI 8da0 .cfa: $rsp 32 +
STACK CFI 8db4 .cfa: $rsp 24 +
STACK CFI 8db7 .cfa: $rsp 16 +
STACK CFI 8db8 .cfa: $rsp 8 +
STACK CFI INIT 8dc0 15 .cfa: $rsp 8 + .ra: .cfa -8 + ^
STACK CFI INIT 8de0 b6 .cfa: $rsp 8 + .ra: .cfa -8 + ^
STACK CFI 8de2 $r13: .cfa -16 + ^ .cfa: $rsp 16 +
STACK CFI 8de4 $r12: .cfa -24 + ^ .cfa: $rsp 24 +
STACK CFI 8de5 $rbp: .cfa -32 + ^ .cfa: $rsp 32 +
STACK CFI 8de6 $rbx: .cfa -40 + ^ .cfa: $rsp 40 +
STACK CFI 8dea .cfa: $rsp 48 +
STACK CFI 8e1d .cfa: $rsp 40 +
STACK CFI 8e1e .cfa: $rsp 32 +
STACK CFI 8e1f .cfa: $rsp 24 +
STACK CFI 8e21 .cfa: $rsp 16 +
STACK CFI 8e23 .cfa: $rsp 8 +
STACK CFI 8e28 .cfa: $rsp 48 +
STACK CFI INIT 8ea0 ff .cfa: $rsp 8 + .ra: .cfa -8 + ^
STACK CFI 8ea1 $rbp: .cfa -16 + ^ .cfa: $rsp 16 +
STACK CFI 8ea5 $rbx: .cfa -24 + ^ .cfa: $rsp 24 +
STACK CFI 8ea9 .cfa: $rsp 32 +
STACK CFI 8f2b .cfa: $rsp 24 +
STACK CFI 8f2c .cfa: $rsp 16 +
STACK CFI 8f2d .cfa: $rsp 8 +
STACK CFI 8f30 .cfa: $rsp 32 +
STACK CFI 8f3d .cfa: $rsp 24 +
STACK CFI 8f40 .cfa: $rsp 16 +
STACK CFI 8f41 .cfa: $rsp 8 +
STACK CFI 8f42 .cfa: $rsp 32 +
STACK CFI INIT 8fa0 b4 .cfa: $rsp 8 + .ra: .cfa -8 + ^
STACK CFI 8fa2 $r15: .cfa -16 + ^ .cfa: $rsp 16 +
STACK CFI 8fa4 $r14: .cfa -24 + ^ .cfa: $rsp 24 +
STACK CFI 8fa6 $r13: .cfa -32 + ^ .cfa: $rsp 32 +
STACK CFI 8fa8 $r12: .cfa -40 + ^ .cfa: $rsp 40 +
STACK CFI 8fa9 $rbp: .cfa -48 + ^ .cfa: $rsp 48 +
STACK CFI 8faa $rbx: .cfa -56 + ^ .cfa: $rsp 56 +
STACK CFI 8fb0 .cfa: $rsp 80 +
STACK CFI 903d .cfa: $rsp 56 +
STACK CFI 903e .cfa: $rsp 48 +
STACK CFI 903f .cfa: $rsp 40 +
STACK CFI 9041 .cfa: $rsp 32 +
STACK CFI 9043 .cfa: $rsp 24 +
STACK CFI 9045 .cfa: $rsp 16 +
STACK CFI 9047 .cfa: $rsp 8 +
STACK CFI 9048 .cfa: $rsp 80 +
STACK CFI INIT 9060 b5 .cfa: $rsp 8 + .ra: .cfa -8 + ^
STACK CFI 9062 $r15: .cfa -16 + ^ .cfa: $rsp 16 +
STACK CFI 9064 $r14: .cfa -24 + ^ .cfa: $rsp 24 +
STACK CFI 9066 $r13: .cfa -32 + ^ .cfa: $rsp 32 +
STACK CFI 9068 $r12: .cfa -40 + ^ .cfa: $rsp 40 +
STACK CFI 9069 $rbp: .cfa -48 + ^ .cfa: $rsp 48 +
STACK CFI 906a $rbx: .cfa -56 + ^ .cfa: $rsp 56 +
STACK CFI 9070 .cfa: $rsp 80 +
STACK CFI 90fe .cfa: $rsp 56 +
STACK CFI 90ff .cfa: $rsp 48 +
STACK CFI 9100 .cfa: $rsp 40 +
STACK CFI 9102 .cfa: $rsp 32 +
STACK CFI 9104 .cfa: $rsp 24 +
STACK CFI 9106 .cfa: $rsp 16 +
STACK CFI 9108 .cfa: $rsp 8 +
STACK CFI 9109 .cfa: $rsp 80 +
STACK CFI INIT 9120 41 .cfa: $rsp 8 + .ra: .cfa -8 + ^
STACK CFI 9121 $rbx: .cfa -16 + ^ .cfa: $rsp 16 +
STACK CFI 9141 .cfa: $rsp 8 +
STACK CFI 9142 .cfa: $rsp 16 +
STACK CFI INIT 9170 88 .cfa: $rsp 8 + .ra: .cfa -8 + ^
STACK CFI 9174 .cfa: $rsp 16 +
STACK CFI 9197 .cfa: $rsp 8 +
STACK CFI 919c .cfa: $rsp 16 +
STACK CFI INIT 9200 c1 .cfa: $rsp 8 + .ra: .cfa -8 + ^
STACK CFI 9202 $r12: .cfa -16 + ^ .cfa: $rsp 16 +
STACK CFI 9203 $rbp: .cfa -24 + ^ .cfa: $rsp 24 +
STACK CFI 9207 $rbx: .cfa -32 + ^ .cfa: $rsp 32 +
STACK CFI 920b .cfa: $rsp 64 +
STACK CFI 9243 .cfa: $rsp 32 +
STACK CFI 9246 .cfa: $rsp 24 +
STACK CFI 9247 .cfa: $rsp 16 +
STACK CFI 9249 .cfa: $rsp 8 +
STACK CFI 9250 .cfa: $rsp 64 +
STACK CFI 927e .cfa: $rsp 32 +
STACK CFI 927f .cfa: $rsp 24 +
STACK CFI 9280 .cfa: $rsp 16 +
STACK CFI 9282 .cfa: $rsp 8 +
STACK CFI 9283 .cfa: $rsp 64 +
STACK CFI INIT 92f0 22 .cfa: $rsp 8 + .ra: .cfa -8 + ^
STACK CFI INIT 9320 1d9 .cfa: $rsp 8 + .ra: .cfa -8 + ^
STACK CFI 9322 $r15: .cfa -16 + ^ .cfa: $rsp 16 +
STACK CFI 9324 $r14: .cfa -24 + ^ .cfa: $rsp 24 +
STACK CFI 9326 $r13: .cfa -32 + ^ .cfa: $rsp 32 +
STACK CFI 9328 $r12: .cfa -40 + ^ .cfa: $rsp 40 +
STACK CFI 9329 $rbp: .cfa -48 + ^ .cfa: $rsp 48 +
STACK CFI 932d $rbx: .cfa -56 + ^ .cfa: $rsp 56 +
STACK CFI 9331 .cfa: $rsp 128 +
STACK CFI 9418 .cfa: $rsp 56 +
STACK CFI 941b .cfa: $rsp 48 +
STACK CFI 941c .cfa: $rsp 40 +
STACK CFI 941e .cfa: $rsp 32 +
STACK CFI 9420 .cfa: $rsp 24 +
STACK CFI 9422 .cfa: $rsp 16 +
STACK CFI 9424 .cfa: $rsp 8 +
STACK CFI 9428 .cfa: $rsp 128 +
STACK CFI INIT 92d0 5 .cfa: $rsp 8 + .ra: .cfa -8 + ^
STACK CFI INIT 9500 1d7 .cfa: $rsp 8 + .ra: .cfa -8 + ^
STACK CFI 9502 $r15: .cfa -16 + ^ .cfa: $rsp 16 +
STACK CFI 9504 $r14: .cfa -24 + ^ .cfa: $rsp 24 +
STACK CFI 9506 $r13: .cfa -32 + ^ .cfa: $rsp 32 +
STACK CFI 9508 $r12: .cfa -40 + ^ .cfa: $rsp 40 +
STACK CFI 9509 $rbp: .cfa -48 + ^ .cfa: $rsp 48 +
STACK CFI 950d $rbx: .cfa -56 + ^ .cfa: $rsp 56 +
STACK CFI 9511 .cfa: $rsp 128 +
STACK CFI 95f7 .cfa: $rsp 56 +
STACK CFI 95fa .cfa: $rsp 48 +
STACK CFI 95fb .cfa: $rsp 40 +
STACK CFI 95fd .cfa: $rsp 32 +
STACK CFI 95ff .cfa: $rsp 24 +
STACK CFI 9601 .cfa: $rsp 16 +
STACK CFI 9603 .cfa: $rsp 8 +
STACK CFI 9608 .cfa: $rsp 128 +
STACK CFI INIT 92e0 5 .cfa: $rsp 8 + .ra: .cfa -8 + ^
STACK CFI INIT 96e0 91 .cfa: $rsp 8 + .ra: .cfa -8 + ^
STACK CFI 96e2 $r15: .cfa -16 + ^ .cfa: $rsp 16 +
STACK CFI 96eb $r14: .cfa -24 + ^ .cfa: $rsp 24 +
STACK CFI 96f4 $r13: .cfa -32 + ^ .cfa: $rsp 32 +
STACK CFI 96f6 $r12: .cfa -40 + ^ .cfa: $rsp 40 +
STACK CFI 96f7 $rbp: .cfa -48 + ^ .cfa: $rsp 48 +
STACK CFI 96fb $rbx: .cfa -56 + ^ .cfa: $rsp 56 +
STACK CFI 9703 .cfa: $rsp 80 +
STACK CFI 974c .cfa: $rsp 56 +
STACK CFI 974d .cfa: $rsp 48 +
STACK CFI 9750 .cfa: $rsp 40 +
STACK CFI 9752 .cfa: $rsp 32 +
STACK CFI 9754 .cfa: $rsp 24 +
STACK CFI 9756 .cfa: $rsp 16 +
STACK CFI 9758 .cfa: $rsp 8 +
STACK CFI 9760 .cfa: $rsp 80 +
STACK CFI 9764 .cfa: $rsp 56 +
STACK CFI 9767 .cfa: $rsp 48 +
STACK CFI 9768 .cfa: $rsp 40 +
STACK CFI 976a .cfa: $rsp 32 +
STACK CFI 976c .cfa: $rsp 24 +
STACK CFI 976e .cfa: $rsp 16 +
STACK CFI 9770 .cfa: $rsp 8 +
STACK CFI INIT 9780 56 .cfa: $rsp 8 + .ra: .cfa -8 + ^
STACK CFI 9781 $rbx: .cfa -16 + ^ .cfa: $rsp 16 +
STACK CFI 978d .cfa: $rsp 48 +
STACK CFI 97d4 .cfa: $rsp 16 +
STACK CFI 97d5 .cfa: $rsp 8 +
STACK CFI INIT 97e0 15b .cfa: $rsp 8 + .ra: .cfa -8 + ^
STACK CFI 97e2 $r14: .cfa -16 + ^ .cfa: $rsp 16 +
STACK CFI 97e4 $r13: .cfa -24 + ^ .cfa: $rsp 24 +
STACK CFI 97e6 $r12: .cfa -32 + ^ .cfa: $rsp 32 +
STACK CFI 97ea $rbp: .cfa -40 + ^ .cfa: $rsp 40 +
STACK CFI 97ee $rbx: .cfa -48 + ^ .cfa: $rsp 48 +
STACK CFI 97f2 .cfa: $rsp 80 +
STACK CFI 98d9 .cfa: $rsp 48 +
STACK CFI 98dd .cfa: $rsp 40 +
STACK CFI 98de .cfa: $rsp 32 +
STACK CFI 98e0 .cfa: $rsp 24 +
STACK CFI 98e2 .cfa: $rsp 16 +
STACK CFI 98e4 .cfa: $rsp 8 +
STACK CFI 98e8 .cfa: $rsp 80 +
STACK CFI INIT 9b20 283 .cfa: $rsp 8 + .ra: .cfa -8 + ^
STACK CFI 9b22 $r15: .cfa -16 + ^ .cfa: $rsp 16 +
STACK CFI 9b24 $r14: .cfa -24 + ^ .cfa: $rsp 24 +
STACK CFI 9b26 $r13: .cfa -32 + ^ .cfa: $rsp 32 +
STACK CFI 9b28 $r12: .cfa -40 + ^ .cfa: $rsp 40 +
STACK CFI 9b2c $rbp: .cfa -48 + ^ .cfa: $rsp 48 +
STACK CFI 9b2d $rbx: .cfa -56 + ^ .cfa: $rsp 56 +
STACK CFI 9b31 .cfa: $rsp 80 +
STACK CFI 9bc8 .cfa: $rsp 56 +
STACK CFI 9bc9 .cfa: $rsp 48 +
STACK CFI 9bca .cfa: $rsp 40 +
STACK CFI 9bcc .cfa: $rsp 32 +
STACK CFI 9bce .cfa: $rsp 24 +
STACK CFI 9bd0 .cfa: $rsp 16 +
STACK CFI 9bd2 .cfa: $rsp 8 +
STACK CFI 9bd8 .cfa: $rsp 80 +
STACK CFI 9cc1 .cfa: $rsp 56 +
STACK CFI 9cc2 .cfa: $rsp 48 +
STACK CFI 9cc3 .cfa: $rsp 40 +
STACK CFI 9cc5 .cfa: $rsp 32 +
STACK CFI 9cc7 .cfa: $rsp 24 +
STACK CFI 9cc9 .cfa: $rsp 16 +
STACK CFI 9ccb .cfa: $rsp 8 +
STACK CFI 9cd0 .cfa: $rsp 80 +
STACK CFI 9d60 .cfa: $rsp 56 +
STACK CFI 9d61 .cfa: $rsp 48 +
STACK CFI 9d62 .cfa: $rsp 40 +
STACK CFI 9d64 .cfa: $rsp 32 +
STACK CFI 9d66 .cfa: $rsp 24 +
STACK CFI 9d68 .cfa: $rsp 16 +
STACK CFI 9d6a .cfa: $rsp 8 +
STACK CFI 9d70 .cfa: $rsp 80 +
STACK CFI INIT 9940 e3 .cfa: $rsp 8 + .ra: .cfa -8 + ^
STACK CFI 9942 $r12: .cfa -16 + ^ .cfa: $rsp 16 +
STACK CFI 9943 $rbp: .cfa -24 + ^ .cfa: $rsp 24 +
STACK CFI 9947 $rbx: .cfa -32 + ^ .cfa: $rsp 32 +
STACK CFI 994e .cfa: $rsp 64 +
STACK CFI 99ea .cfa: $rsp 32 +
STACK CFI 99eb .cfa: $rsp 24 +
STACK CFI 99ec .cfa: $rsp 16 +
STACK CFI 99ee .cfa: $rsp 8 +
STACK CFI 99f0 .cfa: $rsp 64 +
STACK CFI 9a04 .cfa: $rsp 32 +
STACK CFI 9a05 .cfa: $rsp 24 +
STACK CFI 9a06 .cfa: $rsp 16 +
STACK CFI 9a08 .cfa: $rsp 8 +
STACK CFI 9a10 .cfa: $rsp 64 +
STACK CFI INIT 9a30 e3 .cfa: $rsp 8 + .ra: .cfa -8 + ^
STACK CFI 9a32 $r12: .cfa -16 + ^ .cfa: $rsp 16 +
STACK CFI 9a33 $rbp: .cfa -24 + ^ .cfa: $rsp 24 +
STACK CFI 9a37 $rbx: .cfa -32 + ^ .cfa: $rsp 32 +
STACK CFI 9a3e .cfa: $rsp 64 +
STACK CFI 9ad8 .cfa: $rsp 32 +
STACK CFI 9ad9 .cfa: $rsp 24 +
STACK CFI 9ada .cfa: $rsp 16 +
STACK CFI 9adc .cfa: $rsp 8 +
STACK CFI 9ae0 .cfa: $rsp 64 +
STACK CFI 9af4 .cfa: $rsp 32 +
STACK CFI 9af5 .cfa: $rsp 24 +
STACK CFI 9af6 .cfa: $rsp 16 +
STACK CFI 9af8 .cfa: $rsp 8 +
STACK CFI 9b00 .cfa: $rsp 64 +
STACK CFI INIT 9ef0 16 .cfa: $rsp 8 + .ra: .cfa -8 + ^
STACK CFI 9ef4 .cfa: $rsp 16 +
STACK CFI 9eff .cfa: $rsp 8 +
STACK CFI INIT 9db0 73 .cfa: $rsp 8 + .ra: .cfa -8 + ^
STACK CFI 9db1 $rbx: .cfa -16 + ^ .cfa: $rsp 16 +
STACK CFI 9e22 .cfa: $rsp 8 +
STACK CFI INIT 9e30 c0 .cfa: $rsp 8 + .ra: .cfa -8 + ^
STACK CFI 9e31 $rbx: .cfa -16 + ^ .cfa: $rsp 16 +
STACK CFI 9e35 .cfa: $rsp 48 +
STACK CFI 9ecd .cfa: $rsp 16 +
STACK CFI 9ed0 .cfa: $rsp 8 +
STACK CFI 9ed1 .cfa: $rsp 48 +
STACK CFI INIT 9f10 1e .cfa: $rsp 8 + .ra: .cfa -8 + ^
STACK CFI INIT 9f30 33 .cfa: $rsp 8 + .ra: .cfa -8 + ^
STACK CFI INIT 9f70 56 .cfa: $rsp 8 + .ra: .cfa -8 + ^
STACK CFI INIT 9fd0 4c .cfa: $rsp 8 + .ra: .cfa -8 + ^
STACK CFI INIT a020 36 .cfa: $rsp 8 + .ra: .cfa -8 + ^
STACK CFI INIT a060 3a .cfa: $rsp 8 + .ra: .cfa -8 + ^
STACK CFI INIT a0a0 2b .cfa: $rsp 8 + .ra: .cfa -8 + ^
STACK CFI INIT a0d0 26 .cfa: $rsp 8 + .ra: .cfa -8 + ^
STACK CFI INIT a100 2b .cfa: $rsp 8 + .ra: .cfa -8 + ^
STACK CFI INIT a130 64 .cfa: $rsp 8 + .ra: .cfa -8 + ^
STACK CFI INIT a1a0 3a .cfa: $rsp 8 + .ra: .cfa -8 + ^
STACK CFI INIT a1e0 1f .cfa: $rsp 8 + .ra: .cfa -8 + ^
STACK CFI INIT a200 38 .cfa: $rsp 8 + .ra: .cfa -8 + ^
STACK CFI INIT a240 45 .cfa: $rsp 8 + .ra: .cfa -8 + ^
STACK CFI a246 $rbx: .cfa -16 + ^ .cfa: $rsp 16 +
STACK CFI a263 $rbx: $rbx .cfa: $rsp 8 +
STACK CFI a268 $rbx: .cfa -16 + ^ .cfa: $rsp 16 +
STACK CFI a27c $rbx: $rbx .cfa: $rsp 8 +
STACK CFI a280 $rbx: .cfa -16 + ^ .cfa: $rsp 16 +
STACK CFI a284 $rbx: $rbx .cfa: $rsp 8 +
STACK CFI INIT a290 6c .cfa: $rsp 8 + .ra: .cfa -8 + ^
STACK CFI a294 .cfa: $rsp 32 +
STACK CFI a2ee .cfa: $rsp 8 +
STACK CFI a2f0 .cfa: $rsp 32 +
STACK CFI INIT a580 f .cfa: $rsp 8 + .ra: .cfa -8 + ^
STACK CFI INIT a300 f .cfa: $rsp 8 + .ra: .cfa -8 + ^
STACK CFI INIT a590 13 .cfa: $rsp 8 + .ra: .cfa -8 + ^
STACK CFI INIT a310 13 .cfa: $rsp 8 + .ra: .cfa -8 + ^
STACK CFI INIT a330 212 .cfa: $rsp 8 + .ra: .cfa -8 + ^
STACK CFI a332 $r15: .cfa -16 + ^ .cfa: $rsp 16 +
STACK CFI a339 $r14: .cfa -24 + ^ .cfa: $rsp 24 +
STACK CFI a33b $r13: .cfa -32 + ^ .cfa: $rsp 32 +
STACK CFI a340 $r12: .cfa -40 + ^ .cfa: $rsp 40 +
STACK CFI a346 $rbp: .cfa -48 + ^ .cfa: $rsp 48 +
STACK CFI a352 $rbx: .cfa -56 + ^ .cfa: $rsp 56 +
STACK CFI a359 .cfa: $rsp 208 +
STACK CFI a4eb .cfa: $rsp 56 +
STACK CFI a4ec .cfa: $rsp 48 +
STACK CFI a4ed .cfa: $rsp 40 +
STACK CFI a4ef .cfa: $rsp 32 +
STACK CFI a4f1 .cfa: $rsp 24 +
STACK CFI a4f3 .cfa: $rsp 16 +
STACK CFI a4f5 .cfa: $rsp 8 +
STACK CFI a500 .cfa: $rsp 208 +
STACK CFI INIT a550 24 .cfa: $rsp 8 + .ra: .cfa -8 + ^
STACK CFI a553 $rbx: .cfa -16 + ^ .cfa: $rsp 16 +
STACK CFI a56f .cfa: $rsp 8 +
STACK CFI a570 .cfa: $rsp 16 +
STACK CFI a573 .cfa: $rsp 8 +
STACK CFI INIT 1c84 20 .cfa: $rsp 8 + .ra: .cfa -8 + ^
STACK CFI 1c8c .cfa: $rsp 16 +
STACK CFI INIT a5b0 69 .cfa: $rsp 8 + .ra: .cfa -8 + ^
STACK CFI a5b2 $r13: .cfa -16 + ^ .cfa: $rsp 16 +
STACK CFI a5ba $r12: .cfa -24 + ^ .cfa: $rsp 24 +
STACK CFI a5be $rbp: .cfa -32 + ^ .cfa: $rsp 32 +
STACK CFI a5bf $rbx: .cfa -40 + ^ .cfa: $rsp 40 +
STACK CFI a5c3 .cfa: $rsp 48 +
STACK CFI a612 .cfa: $rsp 40 +
STACK CFI a613 .cfa: $rsp 32 +
STACK CFI a614 .cfa: $rsp 24 +
STACK CFI a616 .cfa: $rsp 16 +
STACK CFI a618 .cfa: $rsp 8 +
STACK CFI INIT a620 12 .cfa: $rsp 8 + .ra: .cfa -8 + ^
STACK CFI a621 $rbx: .cfa -16 + ^ .cfa: $rsp 16 +
STACK CFI a62d .cfa: $rsp 8 +
STACK CFI INIT a640 131 .cfa: $rsp 8 + .ra: .cfa -8 + ^
STACK CFI a642 $r13: .cfa -16 + ^ .cfa: $rsp 16 +
STACK CFI a64e $r12: .cfa -24 + ^ .cfa: $rsp 24 +
STACK CFI a64f $rbp: .cfa -32 + ^ .cfa: $rsp 32 +
STACK CFI a650 $rbx: .cfa -40 + ^ .cfa: $rsp 40 +
STACK CFI a657 .cfa: $rsp 336 +
STACK CFI a72a .cfa: $rsp 40 +
STACK CFI a72b .cfa: $rsp 32 +
STACK CFI a72c .cfa: $rsp 24 +
STACK CFI a72e .cfa: $rsp 16 +
STACK CFI a730 .cfa: $rsp 8 +
STACK CFI a738 .cfa: $rsp 336 +
STACK CFI INIT a780 32 .cfa: $rsp 8 + .ra: .cfa -8 + ^
STACK CFI a781 $rbx: .cfa -16 + ^ .cfa: $rsp 16 +
STACK CFI a790 .cfa: $rsp 8 +
STACK CFI a798 .cfa: $rsp 16 +
STACK CFI a7ac .cfa: $rsp 8 +
STACK CFI INIT a7c0 4b .cfa: $rsp 8 + .ra: .cfa -8 + ^
STACK CFI INIT a810 73 .cfa: $rsp 8 + .ra: .cfa -8 + ^
STACK CFI a812 $r14: .cfa -16 + ^ .cfa: $rsp 16 +
STACK CFI a817 $r13: .cfa -24 + ^ .cfa: $rsp 24 +
STACK CFI a81c $r12: .cfa -32 + ^ .cfa: $rsp 32 +
STACK CFI a820 $rbp: .cfa -40 + ^ .cfa: $rsp 40 +
STACK CFI a824 $rbx: .cfa -48 + ^ .cfa: $rsp 48 +
STACK CFI a86c .cfa: $rsp 40 +
STACK CFI a86d .cfa: $rsp 32 +
STACK CFI a86f .cfa: $rsp 24 +
STACK CFI a871 .cfa: $rsp 16 +
STACK CFI a873 .cfa: $rsp 8 +
STACK CFI a878 .cfa: $rsp 48 +
STACK CFI a879 .cfa: $rsp 40 +
STACK CFI a87a .cfa: $rsp 32 +
STACK CFI a87c .cfa: $rsp 24 +
STACK CFI a87e .cfa: $rsp 16 +
STACK CFI a882 .cfa: $rsp 8 +
STACK CFI INIT a890 214 .cfa: $rsp 8 + .ra: .cfa -8 + ^
STACK CFI a892 $r14: .cfa -16 + ^ .cfa: $rsp 16 +
STACK CFI a894 $r13: .cfa -24 + ^ .cfa: $rsp 24 +
STACK CFI a896 $r12: .cfa -32 + ^ .cfa: $rsp 32 +
STACK CFI a897 $rbp: .cfa -40 + ^ .cfa: $rsp 40 +
STACK CFI a89e $rbx: .cfa -48 + ^ .cfa: $rsp 48 +
STACK CFI a8a8 .cfa: $rsp 864 +
STACK CFI a8e8 .cfa: $rsp 48 +
STACK CFI a8e9 .cfa: $rsp 40 +
STACK CFI a8ea .cfa: $rsp 32 +
STACK CFI a8ec .cfa: $rsp 24 +
STACK CFI a8ee .cfa: $rsp 16 +
STACK CFI a8f0 .cfa: $rsp 8 +
STACK CFI a8f8 .cfa: $rsp 864 +
STACK CFI INIT aab0 35a .cfa: $rsp 8 + .ra: .cfa -8 + ^
STACK CFI aab2 $r15: .cfa -16 + ^ .cfa: $rsp 16 +
STACK CFI aab7 $r14: .cfa -24 + ^ .cfa: $rsp 24 +
STACK CFI aabc $r13: .cfa -32 + ^ .cfa: $rsp 32 +
STACK CFI aac1 $r12: .cfa -40 + ^ .cfa: $rsp 40 +
STACK CFI aac2 $rbp: .cfa -48 + ^ .cfa: $rsp 48 +
STACK CFI aac6 $rbx: .cfa -56 + ^ .cfa: $rsp 56 +
STACK CFI aad0 .cfa: $rsp 368 +
STACK CFI ab4e .cfa: $rsp 56 +
STACK CFI ab4f .cfa: $rsp 48 +
STACK CFI ab50 .cfa: $rsp 40 +
STACK CFI ab52 .cfa: $rsp 32 +
STACK CFI ab54 .cfa: $rsp 24 +
STACK CFI ab56 .cfa: $rsp 16 +
STACK CFI ab58 .cfa: $rsp 8 +
STACK CFI ab60 .cfa: $rsp 368 +
STACK CFI INIT bb10 2eb .cfa: $rsp 8 + .ra: .cfa -8 + ^
STACK CFI bb12 $r15: .cfa -16 + ^ .cfa: $rsp 16 +
STACK CFI bb14 $r14: .cfa -24 + ^ .cfa: $rsp 24 +
STACK CFI bb19 $r13: .cfa -32 + ^ .cfa: $rsp 32 +
STACK CFI bb1b $r12: .cfa -40 + ^ .cfa: $rsp 40 +
STACK CFI bb1c $rbp: .cfa -48 + ^ .cfa: $rsp 48 +
STACK CFI bb20 $rbx: .cfa -56 + ^ .cfa: $rsp 56 +
STACK CFI bb27 .cfa: $rsp 96 +
STACK CFI bb73 .cfa: $rsp 56 +
STACK CFI bb74 .cfa: $rsp 48 +
STACK CFI bb75 .cfa: $rsp 40 +
STACK CFI bb77 .cfa: $rsp 32 +
STACK CFI bb79 .cfa: $rsp 24 +
STACK CFI bb7b .cfa: $rsp 16 +
STACK CFI bb7d .cfa: $rsp 8 +
STACK CFI bb80 .cfa: $rsp 96 +
STACK CFI INIT be00 42c .cfa: $rsp 8 + .ra: .cfa -8 + ^
STACK CFI be02 $r15: .cfa -16 + ^ .cfa: $rsp 16 +
STACK CFI be04 $r14: .cfa -24 + ^ .cfa: $rsp 24 +
STACK CFI be09 $r13: .cfa -32 + ^ .cfa: $rsp 32 +
STACK CFI be0b $r12: .cfa -40 + ^ .cfa: $rsp 40 +
STACK CFI be0c $rbp: .cfa -48 + ^ .cfa: $rsp 48 +
STACK CFI be0d $rbx: .cfa -56 + ^ .cfa: $rsp 56 +
STACK CFI be11 .cfa: $rsp 96 +
STACK CFI beb8 .cfa: $rsp 56 +
STACK CFI beb9 .cfa: $rsp 48 +
STACK CFI beba .cfa: $rsp 40 +
STACK CFI bebc .cfa: $rsp 32 +
STACK CFI bebe .cfa: $rsp 24 +
STACK CFI bec0 .cfa: $rsp 16 +
STACK CFI bec2 .cfa: $rsp 8 +
STACK CFI bec8 .cfa: $rsp 96 +
STACK CFI bf40 .cfa: $rsp 56 +
STACK CFI bf41 .cfa: $rsp 48 +
STACK CFI bf42 .cfa: $rsp 40 +
STACK CFI bf44 .cfa: $rsp 32 +
STACK CFI bf46 .cfa: $rsp 24 +
STACK CFI bf48 .cfa: $rsp 16 +
STACK CFI bf4a .cfa: $rsp 8 +
STACK CFI bf50 .cfa: $rsp 96 +
STACK CFI c0b8 .cfa: $rsp 56 +
STACK CFI c0b9 .cfa: $rsp 48 +
STACK CFI c0ba .cfa: $rsp 40 +
STACK CFI c0bc .cfa: $rsp 32 +
STACK CFI c0be .cfa: $rsp 24 +
STACK CFI c0c0 .cfa: $rsp 16 +
STACK CFI c0c2 .cfa: $rsp 8 +
STACK CFI c0c8 .cfa: $rsp 96 +
STACK CFI INIT ae10 4ca .cfa: $rsp 8 + .ra: .cfa -8 + ^
STACK CFI ae12 $r15: .cfa -16 + ^ .cfa: $rsp 16 +
STACK CFI ae1b $r14: .cfa -24 + ^ .cfa: $rsp 24 +
STACK CFI ae23 $r13: .cfa -32 + ^ .cfa: $rsp 32 +
STACK CFI ae25 $r12: .cfa -40 + ^ .cfa: $rsp 40 +
STACK CFI ae26 $rbp: .cfa -48 + ^ .cfa: $rsp 48 +
STACK CFI ae27 $rbx: .cfa -56 + ^ .cfa: $rsp 56 +
STACK CFI ae32 .cfa: $rsp 80 +
STACK CFI b040 .cfa: $rsp 56 +
STACK CFI b041 .cfa: $rsp 48 +
STACK CFI b042 .cfa: $rsp 40 +
STACK CFI b044 .cfa: $rsp 32 +
STACK CFI b046 .cfa: $rsp 24 +
STACK CFI b048 .cfa: $rsp 16 +
STACK CFI b04a .cfa: $rsp 8 +
STACK CFI b050 .cfa: $rsp 80 +
STACK CFI INIT c230 438 .cfa: $rsp 8 + .ra: .cfa -8 + ^
STACK CFI c232 $r15: .cfa -16 + ^ .cfa: $rsp 16 +
STACK CFI c237 $r14: .cfa -24 + ^ .cfa: $rsp 24 +
STACK CFI c239 $r13: .cfa -32 + ^ .cfa: $rsp 32 +
STACK CFI c23b $r12: .cfa -40 + ^ .cfa: $rsp 40 +
STACK CFI c23c $rbp: .cfa -48 + ^ .cfa: $rsp 48 +
STACK CFI c23d $rbx: .cfa -56 + ^ .cfa: $rsp 56 +
STACK CFI c241 .cfa: $rsp 96 +
STACK CFI c300 .cfa: $rsp 56 +
STACK CFI c301 .cfa: $rsp 48 +
STACK CFI c302 .cfa: $rsp 40 +
STACK CFI c304 .cfa: $rsp 32 +
STACK CFI c306 .cfa: $rsp 24 +
STACK CFI c308 .cfa: $rsp 16 +
STACK CFI c30a .cfa: $rsp 8 +
STACK CFI c310 .cfa: $rsp 96 +
STACK CFI c380 .cfa: $rsp 56 +
STACK CFI c381 .cfa: $rsp 48 +
STACK CFI c382 .cfa: $rsp 40 +
STACK CFI c384 .cfa: $rsp 32 +
STACK CFI c386 .cfa: $rsp 24 +
STACK CFI c388 .cfa: $rsp 16 +
STACK CFI c38a .cfa: $rsp 8 +
STACK CFI c390 .cfa: $rsp 96 +
STACK CFI c500 .cfa: $rsp 56 +
STACK CFI c501 .cfa: $rsp 48 +
STACK CFI c502 .cfa: $rsp 40 +
STACK CFI c504 .cfa: $rsp 32 +
STACK CFI c506 .cfa: $rsp 24 +
STACK CFI c508 .cfa: $rsp 16 +
STACK CFI c50a .cfa: $rsp 8 +
STACK CFI c510 .cfa: $rsp 96 +
STACK CFI INIT b2e0 82d .cfa: $rsp 8 + .ra: .cfa -8 + ^
STACK CFI b2e2 $r15: .cfa -16 + ^ .cfa: $rsp 16 +
STACK CFI b2ee $r14: .cfa -24 + ^ .cfa: $rsp 24 +
STACK CFI b2f0 $r13: .cfa -32 + ^ .cfa: $rsp 32 +
STACK CFI b2f2 $r12: .cfa -40 + ^ .cfa: $rsp 40 +
STACK CFI b2f3 $rbp: .cfa -48 + ^ .cfa: $rsp 48 +
STACK CFI b2f4 $rbx: .cfa -56 + ^ .cfa: $rsp 56 +
STACK CFI b2fb .cfa: $rsp 480 +
STACK CFI b4a0 .cfa: $rsp 56 +
STACK CFI b4a1 .cfa: $rsp 48 +
STACK CFI b4a2 .cfa: $rsp 40 +
STACK CFI b4a4 .cfa: $rsp 32 +
STACK CFI b4a6 .cfa: $rsp 24 +
STACK CFI b4a8 .cfa: $rsp 16 +
STACK CFI b4aa .cfa: $rsp 8 +
STACK CFI b4ab .cfa: $rsp 480 +
STACK CFI INIT c670 3 .cfa: $rsp 8 + .ra: .cfa -8 + ^
STACK CFI INIT c680 b7 .cfa: $rsp 8 + .ra: .cfa -8 + ^
STACK CFI c682 $r15: .cfa -16 + ^ .cfa: $rsp 16 +
STACK CFI c684 $r14: .cfa -24 + ^ .cfa: $rsp 24 +
STACK CFI c686 $r13: .cfa -32 + ^ .cfa: $rsp 32 +
STACK CFI c688 $r12: .cfa -40 + ^ .cfa: $rsp 40 +
STACK CFI c689 $rbp: .cfa -48 + ^ .cfa: $rsp 48 +
STACK CFI c68a $rbx: .cfa -56 + ^ .cfa: $rsp 56 +
STACK CFI c691 .cfa: $rsp 96 +
STACK CFI c72c .cfa: $rsp 56 +
STACK CFI c72d .cfa: $rsp 48 +
STACK CFI c72e .cfa: $rsp 40 +
STACK CFI c730 .cfa: $rsp 32 +
STACK CFI c732 .cfa: $rsp 24 +
STACK CFI c734 .cfa: $rsp 16 +
STACK CFI c736 .cfa: $rsp 8 +
STACK CFI INIT d3d0 13 .cfa: $rsp 8 + .ra: .cfa -8 + ^
STACK CFI INIT d3f0 20 .cfa: $rsp 8 + .ra: .cfa -8 + ^
STACK CFI d3f8 $rbx: .cfa -16 + ^ .cfa: $rsp 16 +
STACK CFI d40b .cfa: $rsp 8 +
STACK CFI INIT c740 c8 .cfa: $rsp 8 + .ra: .cfa -8 + ^
STACK CFI c742 $r15: .cfa -16 + ^ .cfa: $rsp 16 +
STACK CFI c744 $r14: .cfa -24 + ^ .cfa: $rsp 24 +
STACK CFI c746 $r13: .cfa -32 + ^ .cfa: $rsp 32 +
STACK CFI c748 $r12: .cfa -40 + ^ .cfa: $rsp 40 +
STACK CFI c74c $rbp: .cfa -48 + ^ .cfa: $rsp 48 +
STACK CFI c750 $rbx: .cfa -56 + ^ .cfa: $rsp 56 +
STACK CFI c754 .cfa: $rsp 80 +
STACK CFI c783 .cfa: $rsp 56 +
STACK CFI c786 .cfa: $rsp 48 +
STACK CFI c787 .cfa: $rsp 40 +
STACK CFI c789 .cfa: $rsp 32 +
STACK CFI c78b .cfa: $rsp 24 +
STACK CFI c78d .cfa: $rsp 16 +
STACK CFI c78f .cfa: $rsp 8 +
STACK CFI c790 .cfa: $rsp 80 +
STACK CFI INIT c810 522 .cfa: $rsp 8 + .ra: .cfa -8 + ^
STACK CFI c812 $r15: .cfa -16 + ^ .cfa: $rsp 16 +
STACK CFI c814 $r14: .cfa -24 + ^ .cfa: $rsp 24 +
STACK CFI c816 $r13: .cfa -32 + ^ .cfa: $rsp 32 +
STACK CFI c818 $r12: .cfa -40 + ^ .cfa: $rsp 40 +
STACK CFI c819 $rbp: .cfa -48 + ^ .cfa: $rsp 48 +
STACK CFI c81d $rbx: .cfa -56 + ^ .cfa: $rsp 56 +
STACK CFI c827 .cfa: $rsp 400 +
STACK CFI ca76 .cfa: $rsp 56 +
STACK CFI ca77 .cfa: $rsp 48 +
STACK CFI ca78 .cfa: $rsp 40 +
STACK CFI ca7a .cfa: $rsp 32 +
STACK CFI ca7c .cfa: $rsp 24 +
STACK CFI ca7e .cfa: $rsp 16 +
STACK CFI ca80 .cfa: $rsp 8 +
STACK CFI ca81 .cfa: $rsp 400 +
STACK CFI INIT cd40 ba .cfa: $rsp 8 + .ra: .cfa -8 + ^
STACK CFI cd42 $r15: .cfa -16 + ^ .cfa: $rsp 16 +
STACK CFI cd44 $r14: .cfa -24 + ^ .cfa: $rsp 24 +
STACK CFI cd49 $r13: .cfa -32 + ^ .cfa: $rsp 32 +
STACK CFI cd4b $r12: .cfa -40 + ^ .cfa: $rsp 40 +
STACK CFI cd4c $rbp: .cfa -48 + ^ .cfa: $rsp 48 +
STACK CFI cd4d $rbx: .cfa -56 + ^ .cfa: $rsp 56 +
STACK CFI cd51 .cfa: $rsp 64 +
STACK CFI cdef .cfa: $rsp 56 +
STACK CFI cdf0 .cfa: $rsp 48 +
STACK CFI cdf1 .cfa: $rsp 40 +
STACK CFI cdf3 .cfa: $rsp 32 +
STACK CFI cdf5 .cfa: $rsp 24 +
STACK CFI cdf7 .cfa: $rsp 16 +
STACK CFI cdf9 .cfa: $rsp 8 +
STACK CFI INIT ce00 20 .cfa: $rsp 8 + .ra: .cfa -8 + ^
STACK CFI ce01 $rbx: .cfa -16 + ^ .cfa: $rsp 16 +
STACK CFI ce1f .cfa: $rsp 8 +
STACK CFI INIT d410 2e7 .cfa: $rsp 8 + .ra: .cfa -8 + ^
STACK CFI d412 $r15: .cfa -16 + ^ .cfa: $rsp 16 +
STACK CFI d414 $r14: .cfa -24 + ^ .cfa: $rsp 24 +
STACK CFI d419 $r13: .cfa -32 + ^ .cfa: $rsp 32 +
STACK CFI d41b $r12: .cfa -40 + ^ .cfa: $rsp 40 +
STACK CFI d41c $rbp: .cfa -48 + ^ .cfa: $rsp 48 +
STACK CFI d420 $rbx: .cfa -56 + ^ .cfa: $rsp 56 +
STACK CFI d427 .cfa: $rsp 96 +
STACK CFI d45c .cfa: $rsp 56 +
STACK CFI d45d .cfa: $rsp 48 +
STACK CFI d45e .cfa: $rsp 40 +
STACK CFI d460 .cfa: $rsp 32 +
STACK CFI d462 .cfa: $rsp 24 +
STACK CFI d464 .cfa: $rsp 16 +
STACK CFI d466 .cfa: $rsp 8 +
STACK CFI d470 .cfa: $rsp 96 +
STACK CFI INIT ce20 37e .cfa: $rsp 8 + .ra: .cfa -8 + ^
STACK CFI ce22 $r15: .cfa -16 + ^ .cfa: $rsp 16 +
STACK CFI ce2b $r14: .cfa -24 + ^ .cfa: $rsp 24 +
STACK CFI ce2d $r13: .cfa -32 + ^ .cfa: $rsp 32 +
STACK CFI ce2f $r12: .cfa -40 + ^ .cfa: $rsp 40 +
STACK CFI ce30 $rbp: .cfa -48 + ^ .cfa: $rsp 48 +
STACK CFI ce31 $rbx: .cfa -56 + ^ .cfa: $rsp 56 +
STACK CFI ce3b .cfa: $rsp 384 +
STACK CFI cf97 .cfa: $rsp 56 +
STACK CFI cf98 .cfa: $rsp 48 +
STACK CFI cf99 .cfa: $rsp 40 +
STACK CFI cf9b .cfa: $rsp 32 +
STACK CFI cf9d .cfa: $rsp 24 +
STACK CFI cf9f .cfa: $rsp 16 +
STACK CFI cfa1 .cfa: $rsp 8 +
STACK CFI cfa8 .cfa: $rsp 384 +
STACK CFI INIT d700 42c .cfa: $rsp 8 + .ra: .cfa -8 + ^
STACK CFI d702 $r15: .cfa -16 + ^ .cfa: $rsp 16 +
STACK CFI d704 $r14: .cfa -24 + ^ .cfa: $rsp 24 +
STACK CFI d709 $r13: .cfa -32 + ^ .cfa: $rsp 32 +
STACK CFI d70b $r12: .cfa -40 + ^ .cfa: $rsp 40 +
STACK CFI d70c $rbp: .cfa -48 + ^ .cfa: $rsp 48 +
STACK CFI d70d $rbx: .cfa -56 + ^ .cfa: $rsp 56 +
STACK CFI d711 .cfa: $rsp 96 +
STACK CFI d7b7 .cfa: $rsp 56 +
STACK CFI d7b8 .cfa: $rsp 48 +
STACK CFI d7b9 .cfa: $rsp 40 +
STACK CFI d7bb .cfa: $rsp 32 +
STACK CFI d7bd .cfa: $rsp 24 +
STACK CFI d7bf .cfa: $rsp 16 +
STACK CFI d7c1 .cfa: $rsp 8 +
STACK CFI d7c8 .cfa: $rsp 96 +
STACK CFI d83f .cfa: $rsp 56 +
STACK CFI d840 .cfa: $rsp 48 +
STACK CFI d841 .cfa: $rsp 40 +
STACK CFI d843 .cfa: $rsp 32 +
STACK CFI d845 .cfa: $rsp 24 +
STACK CFI d847 .cfa: $rsp 16 +
STACK CFI d849 .cfa: $rsp 8 +
STACK CFI d850 .cfa: $rsp 96 +
STACK CFI d9ae .cfa: $rsp 56 +
STACK CFI d9af .cfa: $rsp 48 +
STACK CFI d9b0 .cfa: $rsp 40 +
STACK CFI d9b2 .cfa: $rsp 32 +
STACK CFI d9b4 .cfa: $rsp 24 +
STACK CFI d9b6 .cfa: $rsp 16 +
STACK CFI d9b8 .cfa: $rsp 8 +
STACK CFI d9c0 .cfa: $rsp 96 +
STACK CFI INIT d1a0 22c .cfa: $rsp 8 + .ra: .cfa -8 + ^
STACK CFI d1a2 $r15: .cfa -16 + ^ .cfa: $rsp 16 +
STACK CFI d1a4 $r14: .cfa -24 + ^ .cfa: $rsp 24 +
STACK CFI d1a9 $r13: .cfa -32 + ^ .cfa: $rsp 32 +
STACK CFI d1ab $r12: .cfa -40 + ^ .cfa: $rsp 40 +
STACK CFI d1ac $rbp: .cfa -48 + ^ .cfa: $rsp 48 +
STACK CFI d1ad $rbx: .cfa -56 + ^ .cfa: $rsp 56 +
STACK CFI d1b4 .cfa: $rsp 336 +
STACK CFI d35a .cfa: $rsp 56 +
STACK CFI d35b .cfa: $rsp 48 +
STACK CFI d35c .cfa: $rsp 40 +
STACK CFI d35e .cfa: $rsp 32 +
STACK CFI d360 .cfa: $rsp 24 +
STACK CFI d362 .cfa: $rsp 16 +
STACK CFI d364 .cfa: $rsp 8 +
STACK CFI d368 .cfa: $rsp 336 +
STACK CFI INIT db30 d7 .cfa: $rsp 8 + .ra: .cfa -8 + ^
STACK CFI INIT dc10 105 .cfa: $rsp 8 + .ra: .cfa -8 + ^
STACK CFI dc11 $rbp: .cfa -16 + ^ .cfa: $rsp 16 +
STACK CFI dc15 $rbx: .cfa -24 + ^ .cfa: $rsp 24 +
STACK CFI dc99 .cfa: $rsp 16 +
STACK CFI dca0 .cfa: $rsp 8 +
STACK CFI dca8 .cfa: $rsp 24 +
STACK CFI dcf7 .cfa: $rsp 16 +
STACK CFI dd03 .cfa: $rsp 8 +
STACK CFI dd04 .cfa: $rsp 24 +
STACK CFI INIT dd20 e6 .cfa: $rsp 8 + .ra: .cfa -8 + ^
STACK CFI dd31 $r12: .cfa -16 + ^ .cfa: $rsp 16 +
STACK CFI dd32 $rbp: .cfa -24 + ^ .cfa: $rsp 24 +
STACK CFI dd33 $rbx: .cfa -32 + ^ .cfa: $rsp 32 +
STACK CFI dda9 $rbx: $rbx .cfa: $rsp 24 +
STACK CFI ddaa $rbp: $rbp .cfa: $rsp 16 +
STACK CFI ddb7 $r12: $r12 .cfa: $rsp 8 +
STACK CFI ddc0 $r12: .cfa -16 + ^ $rbp: .cfa -24 + ^ $rbx: .cfa -32 + ^ .cfa: $rsp 32 +
STACK CFI ddcb $rbx: $rbx .cfa: $rsp 24 +
STACK CFI ddcc $rbp: $rbp .cfa: $rsp 16 +
STACK CFI ddd9 $r12: $r12 .cfa: $rsp 8 +
STACK CFI dde0 $r12: .cfa -16 + ^ $rbp: .cfa -24 + ^ $rbx: .cfa -32 + ^ .cfa: $rsp 32 +
STACK CFI dde1 $rbx: $rbx .cfa: $rsp 24 +
STACK CFI dde2 $rbp: $rbp .cfa: $rsp 16 +
STACK CFI ddec $r12: $r12 .cfa: $rsp 8 +
STACK CFI dded $r12: .cfa -16 + ^ $rbp: .cfa -24 + ^ $rbx: .cfa -32 + ^ .cfa: $rsp 32 +
STACK CFI ddee $rbx: $rbx .cfa: $rsp 24 +
STACK CFI ddef $rbp: $rbp .cfa: $rsp 16 +
STACK CFI ddfc $r12: $r12 .cfa: $rsp 8 +
STACK CFI INIT de10 1fa .cfa: $rsp 8 + .ra: .cfa -8 + ^
STACK CFI de12 $r13: .cfa -16 + ^ .cfa: $rsp 16 +
STACK CFI de17 $r12: .cfa -24 + ^ .cfa: $rsp 24 +
STACK CFI de1b $rbp: .cfa -32 + ^ .cfa: $rsp 32 +
STACK CFI de1f $rbx: .cfa -40 + ^ .cfa: $rsp 40 +
STACK CFI deee .cfa: $rsp 32 +
STACK CFI def7 .cfa: $rsp 24 +
STACK CFI def9 .cfa: $rsp 16 +
STACK CFI defb .cfa: $rsp 8 +
STACK CFI df00 .cfa: $rsp 40 +
STACK CFI df4a .cfa: $rsp 32 +
STACK CFI df56 .cfa: $rsp 24 +
STACK CFI df58 .cfa: $rsp 16 +
STACK CFI df5a .cfa: $rsp 8 +
STACK CFI df5b .cfa: $rsp 40 +
STACK CFI df5c .cfa: $rsp 32 +
STACK CFI df68 .cfa: $rsp 24 +
STACK CFI df6a .cfa: $rsp 16 +
STACK CFI df6c .cfa: $rsp 8 +
STACK CFI df6d .cfa: $rsp 40 +
STACK CFI dfa1 .cfa: $rsp 32 +
STACK CFI dfb0 .cfa: $rsp 24 +
STACK CFI dfb2 .cfa: $rsp 16 +
STACK CFI dfb4 .cfa: $rsp 8 +
STACK CFI dfb5 .cfa: $rsp 40 +
STACK CFI INIT e010 2b .cfa: $rsp 8 + .ra: .cfa -8 + ^
STACK CFI INIT e040 27f .cfa: $rsp 8 + .ra: .cfa -8 + ^
STACK CFI e042 $r15: .cfa -16 + ^ .cfa: $rsp 16 +
STACK CFI e044 $r14: .cfa -24 + ^ .cfa: $rsp 24 +
STACK CFI e046 $r13: .cfa -32 + ^ .cfa: $rsp 32 +
STACK CFI e048 $r12: .cfa -40 + ^ .cfa: $rsp 40 +
STACK CFI e049 $rbp: .cfa -48 + ^ .cfa: $rsp 48 +
STACK CFI e04a $rbx: .cfa -56 + ^ .cfa: $rsp 56 +
STACK CFI e04e .cfa: $rsp 96 +
STACK CFI e1b4 .cfa: $rsp 56 +
STACK CFI e1b5 .cfa: $rsp 48 +
STACK CFI e1b6 .cfa: $rsp 40 +
STACK CFI e1b8 .cfa: $rsp 32 +
STACK CFI e1ba .cfa: $rsp 24 +
STACK CFI e1bc .cfa: $rsp 16 +
STACK CFI e1be .cfa: $rsp 8 +
STACK CFI e1c0 .cfa: $rsp 96 +
STACK CFI INIT e2c0 1c3 .cfa: $rsp 8 + .ra: .cfa -8 + ^
STACK CFI e2c2 $r14: .cfa -16 + ^ .cfa: $rsp 16 +
STACK CFI e2c9 $r13: .cfa -24 + ^ .cfa: $rsp 24 +
STACK CFI e2ce $r12: .cfa -32 + ^ .cfa: $rsp 32 +
STACK CFI e2cf $rbp: .cfa -40 + ^ .cfa: $rsp 40 +
STACK CFI e2d0 $rbx: .cfa -48 + ^ .cfa: $rsp 48 +
STACK CFI e40c .cfa: $rsp 40 +
STACK CFI e40d .cfa: $rsp 32 +
STACK CFI e40f .cfa: $rsp 24 +
STACK CFI e411 .cfa: $rsp 16 +
STACK CFI e413 .cfa: $rsp 8 +
STACK CFI e418 .cfa: $rsp 48 +
STACK CFI e43c .cfa: $rsp 40 +
STACK CFI e43d .cfa: $rsp 32 +
STACK CFI e43f .cfa: $rsp 24 +
STACK CFI e441 .cfa: $rsp 16 +
STACK CFI e443 .cfa: $rsp 8 +
STACK CFI e444 .cfa: $rsp 48 +
STACK CFI e45a .cfa: $rsp 40 +
STACK CFI e45b .cfa: $rsp 32 +
STACK CFI e45d .cfa: $rsp 24 +
STACK CFI e45f .cfa: $rsp 16 +
STACK CFI e461 .cfa: $rsp 8 +
STACK CFI e462 .cfa: $rsp 48 +
STACK CFI INIT e490 2a7 .cfa: $rsp 8 + .ra: .cfa -8 + ^
STACK CFI e492 $r15: .cfa -16 + ^ .cfa: $rsp 16 +
STACK CFI e494 $r14: .cfa -24 + ^ .cfa: $rsp 24 +
STACK CFI e496 $r13: .cfa -32 + ^ .cfa: $rsp 32 +
STACK CFI e498 $r12: .cfa -40 + ^ .cfa: $rsp 40 +
STACK CFI e499 $rbp: .cfa -48 + ^ .cfa: $rsp 48 +
STACK CFI e49a $rbx: .cfa -56 + ^ .cfa: $rsp 56 +
STACK CFI e49e .cfa: $rsp 104 +
STACK CFI e63c .cfa: $rsp 56 +
STACK CFI e63d .cfa: $rsp 48 +
STACK CFI e63e .cfa: $rsp 40 +
STACK CFI e640 .cfa: $rsp 32 +
STACK CFI e642 .cfa: $rsp 24 +
STACK CFI e644 .cfa: $rsp 16 +
STACK CFI e646 .cfa: $rsp 8 +
STACK CFI e650 .cfa: $rsp 104 +
STACK CFI INIT e740 13 .cfa: $rsp 8 + .ra: .cfa -8 + ^
STACK CFI e744 .cfa: $rsp 32 +
STACK CFI e752 .cfa: $rsp 8 +
STACK CFI INIT e760 1ff .cfa: $rsp 8 + .ra: .cfa -8 + ^
STACK CFI e762 $r14: .cfa -16 + ^ .cfa: $rsp 16 +
STACK CFI e764 $r13: .cfa -24 + ^ .cfa: $rsp 24 +
STACK CFI e766 $r12: .cfa -32 + ^ .cfa: $rsp 32 +
STACK CFI e76a $rbp: .cfa -40 + ^ .cfa: $rsp 40 +
STACK CFI e76b $rbx: .cfa -48 + ^ .cfa: $rsp 48 +
STACK CFI e777 .cfa: $rsp 80 +
STACK CFI e7f4 .cfa: $rsp 48 +
STACK CFI e7f5 .cfa: $rsp 40 +
STACK CFI e7f6 .cfa: $rsp 32 +
STACK CFI e7f8 .cfa: $rsp 24 +
STACK CFI e7fa .cfa: $rsp 16 +
STACK CFI e7fc .cfa: $rsp 8 +
STACK CFI e800 .cfa: $rsp 80 +
STACK CFI e956 .cfa: $rsp 48 +
STACK CFI e957 .cfa: $rsp 40 +
STACK CFI e958 .cfa: $rsp 32 +
STACK CFI e95a .cfa: $rsp 24 +
STACK CFI e95c .cfa: $rsp 16 +
STACK CFI e95e .cfa: $rsp 8 +
STACK CFI INIT e960 5f .cfa: $rsp 8 + .ra: .cfa -8 + ^
STACK CFI e961 $rbp: .cfa -16 + ^ .cfa: $rsp 16 +
STACK CFI e965 $rbx: .cfa -24 + ^ .cfa: $rsp 24 +
STACK CFI e969 .cfa: $rsp 64 +
STACK CFI e99f .cfa: $rsp 24 +
STACK CFI e9a0 .cfa: $rsp 16 +
STACK CFI e9a1 .cfa: $rsp 8 +
STACK CFI e9a8 .cfa: $rsp 64 +
STACK CFI INIT e9c0 11c .cfa: $rsp 8 + .ra: .cfa -8 + ^
STACK CFI e9c2 $r13: .cfa -16 + ^ .cfa: $rsp 16 +
STACK CFI e9c4 $r12: .cfa -24 + ^ .cfa: $rsp 24 +
STACK CFI e9c5 $rbp: .cfa -32 + ^ .cfa: $rsp 32 +
STACK CFI e9c6 $rbx: .cfa -40 + ^ .cfa: $rsp 40 +
STACK CFI e9ca .cfa: $rsp 80 +
STACK CFI eabf .cfa: $rsp 40 +
STACK CFI eac0 .cfa: $rsp 32 +
STACK CFI eac1 .cfa: $rsp 24 +
STACK CFI eac3 .cfa: $rsp 16 +
STACK CFI eac5 .cfa: $rsp 8 +
STACK CFI eac6 .cfa: $rsp 80 +
STACK CFI INIT eae0 10 .cfa: $rsp 8 + .ra: .cfa -8 + ^
STACK CFI INIT eaf0 4b .cfa: $rsp 8 + .ra: .cfa -8 + ^
STACK CFI eaf1 $rbp: .cfa -16 + ^ .cfa: $rsp 16 +
STACK CFI eaf2 $rbx: .cfa -24 + ^ .cfa: $rsp 24 +
STACK CFI eaf9 .cfa: $rsp 32 +
STACK CFI eb2c .cfa: $rsp 24 +
STACK CFI eb2d .cfa: $rsp 16 +
STACK CFI eb2e .cfa: $rsp 8 +
STACK CFI eb30 .cfa: $rsp 32 +
STACK CFI INIT eb40 5 .cfa: $rsp 8 + .ra: .cfa -8 + ^
STACK CFI INIT eb50 177 .cfa: $rsp 8 + .ra: .cfa -8 + ^
STACK CFI eb52 $r13: .cfa -16 + ^ .cfa: $rsp 16 +
STACK CFI eb54 $r12: .cfa -24 + ^ .cfa: $rsp 24 +
STACK CFI eb58 $rbp: .cfa -32 + ^ .cfa: $rsp 32 +
STACK CFI eb5c $rbx: .cfa -40 + ^ .cfa: $rsp 40 +
STACK CFI eb63 .cfa: $rsp 192 +
STACK CFI ec50 .cfa: $rsp 40 +
STACK CFI ec53 .cfa: $rsp 32 +
STACK CFI ec54 .cfa: $rsp 24 +
STACK CFI ec56 .cfa: $rsp 16 +
STACK CFI ec58 .cfa: $rsp 8 +
STACK CFI ec60 .cfa: $rsp 192 +
STACK CFI ec94 .cfa: $rsp 40 +
STACK CFI ec97 .cfa: $rsp 32 +
STACK CFI ec98 .cfa: $rsp 24 +
STACK CFI ec9a .cfa: $rsp 16 +
STACK CFI ec9c .cfa: $rsp 8 +
STACK CFI eca0 .cfa: $rsp 192 +
STACK CFI INIT ecd0 14 .cfa: $rsp 8 + .ra: .cfa -8 + ^
STACK CFI INIT ecf0 40 .cfa: $rsp 8 + .ra: .cfa -8 + ^
STACK CFI ecf6 $rbx: .cfa -16 + ^ .cfa: $rsp 16 +
STACK CFI ed11 .cfa: $rsp 8 +
STACK CFI ed18 .cfa: $rsp 16 +
STACK CFI ed2f .cfa: $rsp 8 +
STACK CFI INIT ed30 1f .cfa: $rsp 8 + .ra: .cfa -8 + ^
STACK CFI ed3b .cfa: $rsp 16 +
STACK CFI ed4e .cfa: $rsp 8 +
STACK CFI INIT ed50 5 .cfa: $rsp 8 + .ra: .cfa -8 + ^
STACK CFI INIT ed60 44d .cfa: $rsp 8 + .ra: .cfa -8 + ^
STACK CFI ed62 $r15: .cfa -16 + ^ .cfa: $rsp 16 +
STACK CFI ed64 $r14: .cfa -24 + ^ .cfa: $rsp 24 +
STACK CFI ed66 $r13: .cfa -32 + ^ .cfa: $rsp 32 +
STACK CFI ed68 $r12: .cfa -40 + ^ .cfa: $rsp 40 +
STACK CFI ed69 $rbp: .cfa -48 + ^ .cfa: $rsp 48 +
STACK CFI ed6a $rbx: .cfa -56 + ^ .cfa: $rsp 56 +
STACK CFI ed71 .cfa: $rsp 96 +
STACK CFI edb7 .cfa: $rsp 56 +
STACK CFI edba .cfa: $rsp 48 +
STACK CFI edbb .cfa: $rsp 40 +
STACK CFI edbd .cfa: $rsp 32 +
STACK CFI edbf .cfa: $rsp 24 +
STACK CFI edc1 .cfa: $rsp 16 +
STACK CFI edc3 .cfa: $rsp 8 +
STACK CFI edc8 .cfa: $rsp 96 +
STACK CFI eefe .cfa: $rsp 56 +
STACK CFI eeff .cfa: $rsp 48 +
STACK CFI ef00 .cfa: $rsp 40 +
STACK CFI ef02 .cfa: $rsp 32 +
STACK CFI ef04 .cfa: $rsp 24 +
STACK CFI ef06 .cfa: $rsp 16 +
STACK CFI ef08 .cfa: $rsp 8 +
STACK CFI ef09 .cfa: $rsp 96 +
STACK CFI INIT f1b0 26f .cfa: $rsp 8 + .ra: .cfa -8 + ^
STACK CFI f1b2 $r14: .cfa -16 + ^ .cfa: $rsp 16 +
STACK CFI f1b7 $r13: .cfa -24 + ^ .cfa: $rsp 24 +
STACK CFI f1b9 $r12: .cfa -32 + ^ .cfa: $rsp 32 +
STACK CFI f1ba $rbp: .cfa -40 + ^ .cfa: $rsp 40 +
STACK CFI f1bb $rbx: .cfa -48 + ^ .cfa: $rsp 48 +
STACK CFI f1f9 .cfa: $rsp 40 +
STACK CFI f1fa .cfa: $rsp 32 +
STACK CFI f1fc .cfa: $rsp 24 +
STACK CFI f1fe .cfa: $rsp 16 +
STACK CFI f202 .cfa: $rsp 8 +
STACK CFI f208 .cfa: $rsp 48 +
STACK CFI f2a6 .cfa: $rsp 40 +
STACK CFI f2a7 .cfa: $rsp 32 +
STACK CFI f2a9 .cfa: $rsp 24 +
STACK CFI f2ab .cfa: $rsp 16 +
STACK CFI f2b0 .cfa: $rsp 8 +
STACK CFI f2b1 .cfa: $rsp 48 +
STACK CFI INIT f420 65 .cfa: $rsp 8 + .ra: .cfa -8 + ^
STACK CFI f422 $r15: .cfa -16 + ^ .cfa: $rsp 16 +
STACK CFI f427 $r14: .cfa -24 + ^ .cfa: $rsp 24 +
STACK CFI f42c $r13: .cfa -32 + ^ .cfa: $rsp 32 +
STACK CFI f431 $r12: .cfa -40 + ^ .cfa: $rsp 40 +
STACK CFI f439 $rbp: .cfa -48 + ^ .cfa: $rsp 48 +
STACK CFI f441 $rbx: .cfa -56 + ^ .cfa: $rsp 56 +
STACK CFI f44e .cfa: $rsp 64 +
STACK CFI f47a .cfa: $rsp 56 +
STACK CFI f47b .cfa: $rsp 48 +
STACK CFI f47c .cfa: $rsp 40 +
STACK CFI f47e .cfa: $rsp 32 +
STACK CFI f480 .cfa: $rsp 24 +
STACK CFI f482 .cfa: $rsp 16 +
STACK CFI f484 .cfa: $rsp 8 +
STACK CFI INIT f490 2 .cfa: $rsp 8 + .ra: .cfa -8 + ^
